(dp0
L16386L
(F524288.0
L4220528L
tp1
sL18434L
(F2.0
L4220528L
tp2
sL24581L
(F2.0
L4220528L
tp3
sL14343L
(F16777216.0
L4220528L
tp4
sL12295L
(F83.85924504158669
L4220528L
tp5
sL6153L
(F0.6956521739130435
L4220528L
tp6
sL20491L
(F2.6666666666666665
L4220528L
tp7
sL8204L
(F128.0
L4220528L
tp8
sL8208L
(F2.245614035087719
L4220528L
tp9
sL16400L
(F61680.94117647059
L4220528L
tp10
sL20496L
(F1.7777777777777777
L4220528L
tp11
sL14353L
(F8388608.0
L4220528L
tp12
sL20504L
(F4.0
L4220528L
tp13
sL24601L
(F1.0
L4220528L
tp14
sL14364L
(F16777216.0
L4220528L
tp15
sL10269L
(F85.33333333333333
L4220528L
tp16
sL12319L
(F41.929622520793345
L4220528L
tp17
sL20513L
(F5.333333333333333
L4220528L
tp18
sL22561L
(F2.0
L4220528L
tp19
sL14374L
(F8388608.0
L4220528L
tp20
sL20518L
(F1.0
L4220528L
tp21
sL6185L
(F2.0
L4220528L
tp22
sL14384L
(F3372.982710092481
L4220528L
tp23
sL20528L
(F1.0
L4220528L
tp24
sL6194L
(F4.0
L4220528L
tp25
sL6196L
(F8.0
L4220528L
tp26
sL22581L
(F1.0
L4220528L
tp27
sL14391L
(F6188.571007008484
L4220528L
tp28
sL10296L
(F256.0
L4220528L
tp29
sL6203L
(F16.0
L4220528L
tp30
sL10302L
(F512.0
L4220528L
tp31
sL10304L
(F8.827586206896552
L4220528L
tp32
sL14401L
(F87609.48302872063
L4220528L
tp33
sL24643L
(F2.0
L4220528L
tp34
sL10308L
(F2.1512605042016806
L4220528L
tp35
sL20548L
(F2.0
L4220528L
tp36
sL6214L
(F32.0
L4220528L
tp37
sL20554L
(F2.0
L4220528L
tp38
sL16458L
(F123361.88235294117
L4220528L
tp39
sL8266L
(F256.0
L4220528L
tp40
sL8272L
(F2.942528735632184
L4220528L
tp41
sL6224L
(F6.4
L4220528L
tp42
sL16464L
(F246723.76470588235
L4220528L
tp43
sL18512L
(F1.0
L4220528L
tp44
sL20560L
(F1.0
L4220528L
tp45
sL24663L
(F1.0
L4220528L
tp46
sL10328L
(F2.0
L4220528L
tp47
sL14424L
(F25031.280865348752
L4220528L
tp48
sL16472L
(F493447.5294117647
L4220528L
tp49
sL6233L
(F12.8
L4220528L
tp50
sL20571L
(F2.0
L4220528L
tp51
sL14429L
(F26935.12502508529
L4220528L
tp52
sL16479L
(F197379.01176470588
L4220528L
tp53
sL22623L
(F2.0
L4220528L
tp54
sL10336L
(F32.0
L4220528L
tp55
sL8288L
(F512.0
L4220528L
tp56
sL6242L
(F25.6
L4220528L
tp57
sL10342L
(F64.0
L4220528L
tp58
sL14440L
(F77875.09602552945
L4220528L
tp59
sL8297L
(F682.6666666666666
L4220528L
tp60
sL10348L
(F128.0
L4220528L
tp61
sL16493L
(F281970.0168067227
L4220528L
tp62
sL14447L
(F155750.1920510589
L4220528L
tp63
sL20591L
(F4.0
L4220528L
tp64
sL16496L
(F70492.50420168067
L4220528L
tp65
sL10352L
(F1.0
L4220528L
tp66
sL22643L
(F1.0
L4220528L
tp67
sL8309L
(F585.1428571428571
L4220528L
tp68
sL10357L
(F2.0
L4220528L
tp69
sL12405L
(F83.85924504158669
L4220528L
tp70
sL16503L
(F30840.470588235294
L4220528L
tp71
sL14456L
(F77875.09602552945
L4220528L
tp72
sL20602L
(F1.3333333333333333
L4220528L
tp73
sL6268L
(F51.2
L4220528L
tp74
sL14460L
(F24724.643640047896
L4220528L
tp75
sL14464L
(F11225.50311546021
L4220528L
tp76
sL24705L
(F2.0
L4220528L
tp77
sL12418L
(F28.278748651564186
L4220528L
tp78
sL14471L
(F60945.727324327396
L4220528L
tp79
sL10377L
(F1.3333333333333333
L4220528L
tp80
sL12432L
(F10.666666666666666
L4220528L
tp81
sL14480L
(F30472.863662163698
L4220528L
tp82
sL20624L
(F2.0
L4220528L
tp83
sL20629L
(F4.0
L4220528L
tp84
sL24725L
(F1.0
L4220528L
tp85
sL8344L
(F1170.2857142857142
L4220528L
tp86
sL22685L
(F2.0
L4220528L
tp87
sL10400L
(F21.333333333333332
L4220528L
tp88
sL14500L
(F15.995800643924703
L4220528L
tp89
sL16549L
(F64.0
L4220528L
tp90
sL8365L
(F585.1428571428571
L4220528L
tp91
sL12461L
(F21.333333333333332
L4220528L
tp92
sL20655L
(F4.0
L4220528L
tp93
sL22705L
(F1.0
L4220528L
tp94
sL14516L
(F15.997900046385697
L4220528L
tp95
sL6325L
(F16.0
L4220528L
tp96
sL20661L
(F1.0
L4220528L
tp97
sL12470L
(F42.666666666666664
L4220528L
tp98
sL24767L
(F2.0
L4220528L
tp99
sL12480L
(F85.33333333333333
L4220528L
tp100
sL20672L
(F1.0
L4220528L
tp101
sL16578L
(F128.0
L4220528L
tp102
sL10438L
(F42.666666666666664
L4220528L
tp103
sL18630L
(F2.0
L4220528L
tp104
sL12487L
(F56.888888888888886
L4220528L
tp105
sL14536L
(F31.995800092771393
L4220528L
tp106
sL20680L
(F2.0
L4220528L
tp107
sL18635L
(F4.0
L4220528L
tp108
sL14545L
(F21.33053339518093
L4220528L
tp109
sL24787L
(F1.0
L4220528L
tp110
sL10452L
(F85.33333333333333
L4220528L
tp111
sL12503L
(F113.77777777777777
L4220528L
tp112
sL20695L
(F4.0
L4220528L
tp113
sL8411L
(F1170.2857142857142
L4220528L
tp114
sL22747L
(F2.0
L4220528L
tp115
sL12508L
(F227.55555555555554
L4220528L
tp116
sL16607L
(F32.0
L4220528L
tp117
sL14562L
(F42.66106679036186
L4220528L
tp118
sL6372L
(F12.8
L4220528L
tp119
sL14569L
(F85.32213358072372
L4220528L
tp120
sL6383L
(F4.0
L4220528L
tp121
sL22767L
(F1.0
L4220528L
tp122
sL20720L
(F2.0
L4220528L
tp123
sL18675L
(F8.0
L4220528L
tp124
sL8436L
(F585.1428571428571
L4220528L
tp125
sL12534L
(F113.77777777777777
L4220528L
tp126
sL18680L
(F1.3333333333333333
L4220528L
tp127
sL10492L
(F170.66666666666666
L4220528L
tp128
sL18685L
(F8.0
L4220528L
tp129
sL24829L
(F2.0
L4220528L
tp130
sL14592L
(F56.881422387149144
L4220528L
tp131
sL16640L
(F32.0
L4220528L
tp132
sL14597L
(F170.64426716144743
L4220528L
tp133
sL20743L
(F4.0
L4220528L
tp134
sL14600L
(F85.32213358072372
L4220528L
tp135
sL12561L
(F75.85185185185185
L4220528L
tp136
sL24849L
(F1.0
L4220528L
tp137
sL10514L
(F341.3333333333333
L4220528L
tp138
sL14612L
(F24.377752451635345
L4220528L
tp139
sL10520L
(F682.6666666666666
L4220528L
tp140
sL22809L
(F2.0
L4220528L
tp141
sL10524L
(F113.77777777777777
L4220528L
tp142
sL6429L
(F3.1219512195121952
L4220528L
tp143
sL12573L
(F105.02564102564102
L4220528L
tp144
sL14626L
(F48.75550490327069
L4220528L
tp145
sL16676L
(F34.68752876813453
L4220528L
tp146
sL6439L
(F3.1219512195121952
L4220528L
tp147
sL10536L
(F1.3178893178893178
L4220528L
tp148
sL12584L
(F1365.3333333333333
L4220528L
tp149
sL16681L
(F1.0
L4220528L
tp150
sL22829L
(F1.0
L4220528L
tp151
sL8495L
(F585.1428571428571
L4220528L
tp152
sL14640L
(F32768.0
L4220528L
tp153
sL16688L
(F1.0
L4220528L
tp154
sL20784L
(F1.0
L4220528L
tp155
sL10545L
(F2.6666666666666665
L4220528L
tp156
sL6450L
(F2.0
L4220528L
tp157
sL8500L
(F780.1904761904761
L4220528L
tp158
sL10550L
(F5.333333333333333
L4220528L
tp159
sL12600L
(F21.333333333333332
L4220528L
tp160
sL8507L
(F2.9388340807174886
L4220528L
tp161
sL24891L
(F2.0
L4220528L
tp162
sL20798L
(F2.0
L4220528L
tp163
sL12607L
(F42.666666666666664
L4220528L
tp164
sL14657L
(F32768.0
L4220528L
tp165
sL6466L
(F4.0
L4220528L
tp166
sL8515L
(F512.0
L4220528L
tp167
sL20803L
(F2.0
L4220528L
tp168
sL14665L
(F26214.4
L4220528L
tp169
sL6476L
(F8.0
L4220528L
tp170
sL8525L
(F1024.0
L4220528L
tp171
sL24911L
(F1.0
L4220528L
tp172
sL6480L
(F4.0
L4220528L
tp173
sL12625L
(F5.333333333333333
L4220528L
tp174
sL14674L
(F20164.923076923078
L4220528L
tp175
sL8531L
(F2048.0
L4220528L
tp176
sL12630L
(F4.048806103851976
L4220528L
tp177
sL10582L
(F10.666666666666666
L4220528L
tp178
sL6486L
(F5.333333333333333
L4220528L
tp179
sL22871L
(F2.0
L4220528L
tp180
sL8539L
(F4096.0
L4220528L
tp181
sL14685L
(F24966.095238095237
L4220528L
tp182
sL10595L
(F21.333333333333332
L4220528L
tp183
sL14696L
(F49932.19047619047
L4220528L
tp184
sL16746L
(F2.0
L4220528L
tp185
sL22891L
(F1.0
L4220528L
tp186
sL12654L
(F10.666666666666666
L4220528L
tp187
sL6511L
(F4.571428571428571
L4220528L
tp188
sL8560L
(F10.666666666666666
L4220528L
tp189
sL14704L
(F927.4592424446587
L4220528L
tp190
sL16755L
(F4.0
L4220528L
tp191
sL14710L
(F59.975959664903456
L4220528L
tp192
sL10614L
(F42.666666666666664
L4220528L
tp193
sL12669L
(F42.666666666666664
L4220528L
tp194
sL24957L
(F2.0
L4220528L
tp195
sL8576L
(F2340.5714285714284
L4220528L
tp196
sL10624L
(F56.888888888888886
L4220528L
tp197
sL6529L
(F32.0
L4220528L
tp198
sL24961L
(F4.0
L4220528L
tp199
sL10633L
(F170.66666666666666
L4220528L
tp200
sL24971L
(F2.6666666666666665
L4220528L
tp201
sL16782L
(F8.0
L4220528L
tp202
sL10640L
(F85.33333333333333
L4220528L
tp203
sL24976L
(F2.0
L4220528L
tp204
sL12692L
(F21.333333333333332
L4220528L
tp205
sL6548L
(F16.0
L4220528L
tp206
sL24980L
(F4.0
L4220528L
tp207
sL22933L
(F2.0
L4220528L
tp208
sL12702L
(F227.55555555555554
L4220528L
tp209
sL6561L
(F21.333333333333332
L4220528L
tp210
sL10661L
(F1.8686131386861313
L4220528L
tp211
sL8616L
(F1170.2857142857142
L4220528L
tp212
sL22953L
(F1.0
L4220528L
tp213
sL16810L
(F4.0
L4220528L
tp214
sL14766L
(F17.343764384067264
L4220528L
tp215
sL12720L
(F83.85924504158669
L4220528L
tp216
sL10672L
(F1.7777777777777777
L4220528L
tp217
sL25008L
(F8.0
L4220528L
tp218
sL10677L
(F3.5555555555555554
L4220528L
tp219
sL6583L
(F128.0
L4220528L
tp220
sL10681L
(F42.666666666666664
L4220528L
tp221
sL12729L
(F2.0
L4220528L
tp222
sL10683L
(F85.33333333333333
L4220528L
tp223
sL10685L
(F341.3333333333333
L4220528L
tp224
sL10687L
(F4.0
L4220528L
tp225
sL6596L
(F8.0
L4220528L
tp226
sL10692L
(F8.0
L4220528L
tp227
sL14789L
(F34.68752876813453
L4220528L
tp228
sL12744L
(F1456.3555555555556
L4220528L
tp229
sL25032L
(F4.0
L4220528L
tp230
sL6603L
(F16.0
L4220528L
tp231
sL16844L
(F2.6666666666666665
L4220528L
tp232
sL18896L
(F1.0
L4220528L
tp233
sL10704L
(F5.333333333333333
L4220528L
tp234
sL20945L
(F1.0
L4220528L
tp235
sL22995L
(F2.0
L4220528L
tp236
sL12756L
(F10.666666666666666
L4220528L
tp237
sL6612L
(F32.0
L4220528L
tp238
sL8663L
(F819.2
L4220528L
tp239
sL12761L
(F1.0
L4220528L
tp240
sL14816L
(F32768.0
L4220528L
tp241
sL12768L
(F1.0
L4220528L
tp242
sL20960L
(F1.0
L4220528L
tp243
sL25056L
(F1.0
L4220528L
tp244
sL14821L
(F8738.133333333333
L4220528L
tp245
sL23015L
(F1.0
L4220528L
tp246
sL6633L
(F64.0
L4220528L
tp247
sL8682L
(F1638.4
L4220528L
tp248
sL14828L
(F65536.0
L4220528L
tp249
sL6639L
(F128.0
L4220528L
tp250
sL18928L
(F2.0
L4220528L
tp251
sL6646L
(F256.0
L4220528L
tp252
sL14839L
(F5349.877551020408
L4220528L
tp253
sL8700L
(F1638.4
L4220528L
tp254
sL14848L
(F87381.33333333333
L4220528L
tp255
sL8705L
(F1.0
L4220528L
tp256
sL20999L
(F2.0
L4220528L
tp257
sL18954L
(F1.0
L4220528L
tp258
sL8720L
(F1.0
L4220528L
tp259
sL14864L
(F32768.0
L4220528L
tp260
sL23057L
(F2.0
L4220528L
tp261
sL14880L
(F32768.0
L4220528L
tp262
sL16929L
(F5.333333333333333
L4220528L
tp263
sL6693L
(F85.33333333333333
L4220528L
tp264
sL23077L
(F1.0
L4220528L
tp265
sL12841L
(F2.0
L4220528L
tp266
sL25129L
(F2.0
L4220528L
tp267
sL14896L
(F32768.0
L4220528L
tp268
sL25136L
(F10.666666666666666
L4220528L
tp269
sL16945L
(F10.666666666666666
L4220528L
tp270
sL10809L
(F16.0
L4220528L
tp271
sL8762L
(F2.0
L4220528L
tp272
sL10811L
(F170.66666666666666
L4220528L
tp273
sL14912L
(F16384.0
L4220528L
tp274
sL10816L
(F1.0
L4220528L
tp275
sL16963L
(F5.333333333333333
L4220528L
tp276
sL12867L
(F4.0
L4220528L
tp277
sL6725L
(F16.0
L4220528L
tp278
sL21064L
(F4.0
L4220528L
tp279
sL12872L
(F8.0
L4220528L
tp280
sL14921L
(F32768.0
L4220528L
tp281
sL25162L
(F1.2192092050890302
L4220528L
tp282
sL21071L
(F1.3333333333333333
L4220528L
tp283
sL23119L
(F2.0
L4220528L
tp284
sL12881L
(F1.0
L4220528L
tp285
sL25171L
(F4.0
L4220528L
tp286
sL14932L
(F65536.0
L4220528L
tp287
sL21081L
(F4.0
L4220528L
tp288
sL14939L
(F131072.0
L4220528L
tp289
sL19038L
(F4.0
L4220528L
tp290
sL21086L
(F5.12
L4220528L
tp291
sL8799L
(F1.8285714285714285
L4220528L
tp292
sL12897L
(F16.0
L4220528L
tp293
sL25186L
(F8.0
L4220528L
tp294
sL21091L
(F4.4885779313832925
L4220528L
tp295
sL23139L
(F1.0
L4220528L
tp296
sL14948L
(F65536.0
L4220528L
tp297
sL6757L
(F128.0
L4220528L
tp298
sL8806L
(F2.0
L4220528L
tp299
sL25192L
(F16.0
L4220528L
tp300
sL25199L
(F6.4
L4220528L
tp301
sL19056L
(F44.0
L4220528L
tp302
sL12912L
(F1.6
L4220528L
tp303
sL14961L
(F131072.0
L4220528L
tp304
sL10867L
(F2.0
L4220528L
tp305
sL21111L
(F16.0
L4220528L
tp306
sL10876L
(F1.3333333333333333
L4220528L
tp307
sL25212L
(F2.4615384615384617
L4220528L
tp308
sL14975L
(F262144.0
L4220528L
tp309
sL12928L
(F4.0
L4220528L
tp310
sL23172L
(F2.0
L4220528L
tp311
sL17029L
(F2.6666666666666665
L4220528L
tp312
sL14986L
(F262144.0
L4220528L
tp313
sL23181L
(F2.6666666666666665
L4220528L
tp314
sL10896L
(F2.0
L4220528L
tp315
sL21136L
(F8.0
L4220528L
tp316
sL14997L
(F1048576.0
L4220528L
tp317
sL23193L
(F8.0
L4220528L
tp318
sL12954L
(F16.0
L4220528L
tp319
sL15007L
(F524288.0
L4220528L
tp320
sL6816L
(F1.0
L4220528L
tp321
sL17056L
(F8.0
L4220528L
tp322
sL25250L
(F4.923076923076923
L4220528L
tp323
sL15016L
(F74898.28571428571
L4220528L
tp324
sL10922L
(F4.0
L4220528L
tp325
sL21164L
(F16.0
L4220528L
tp326
sL23217L
(F8.0
L4220528L
tp327
sL19122L
(F22.0
L4220528L
tp328
sL21172L
(F32.0
L4220528L
tp329
sL25268L
(F2.0
L4220528L
tp330
sL6837L
(F2.0
L4220528L
tp331
sL21174L
(F21.333333333333332
L4220528L
tp332
sL21179L
(F64.0
L4220528L
tp333
sL6847L
(F4.0
L4220528L
tp334
sL12992L
(F1.0
L4220528L
tp335
sL15040L
(F32768.0
L4220528L
tp336
sL23232L
(F4.0
L4220528L
tp337
sL25286L
(F4.0
L4220528L
tp338
sL21192L
(F31.995193029893343
L4220528L
tp339
sL25291L
(F2.6666666666666665
L4220528L
tp340
sL15056L
(F32768.0
L4220528L
tp341
sL6864L
(F1.3333333333333333
L4220528L
tp342
sL10960L
(F4.0
L4220528L
tp343
sL21200L
(F32.0
L4220528L
tp344
sL17109L
(F2.0
L4220528L
tp345
sL13014L
(F2.0
L4220528L
tp346
sL21210L
(F64.0
L4220528L
tp347
sL21212L
(F128.0
L4220528L
tp348
sL23260L
(F4.0
L4220528L
tp349
sL25308L
(F2.2857142857142856
L4220528L
tp350
sL13023L
(F4.0
L4220528L
tp351
sL23263L
(F1.3333333333333333
L4220528L
tp352
sL6880L
(F1.0
L4220528L
tp353
sL15072L
(F32768.0
L4220528L
tp354
sL25319L
(F5.333333333333333
L4220528L
tp355
sL13033L
(F1.6
L4220528L
tp356
sL15088L
(F32768.0
L4220528L
tp357
sL23280L
(F16.0
L4220528L
tp358
sL15095L
(F65536.0
L4220528L
tp359
sL19192L
(F44.0
L4220528L
tp360
sL13049L
(F3.2
L4220528L
tp361
sL15103L
(F43690.666666666664
L4220528L
tp362
sL21247L
(F85.33333333333333
L4220528L
tp363
sL13056L
(F2.6666666666666665
L4220528L
tp364
sL23296L
(F1.0
L4220528L
tp365
sL25344L
(F10.666666666666666
L4220528L
tp366
sL6915L
(F2.0
L4220528L
tp367
sL23308L
(F2.0
L4220528L
tp368
sL6925L
(F4.0
L4220528L
tp369
sL11024L
(F1.0
L4220528L
tp370
sL15120L
(F32768.0
L4220528L
tp371
sL23317L
(F4.0
L4220528L
tp372
sL25366L
(F8.0
L4220528L
tp373
sL6936L
(F1.3333333333333333
L4220528L
tp374
sL15131L
(F65536.0
L4220528L
tp375
sL13088L
(F5.333333333333333
L4220528L
tp376
sL6944L
(F1.0
L4220528L
tp377
sL23329L
(F8.0
L4220528L
tp378
sL15142L
(F131072.0
L4220528L
tp379
sL21287L
(F512.0
L4220528L
tp380
sL6953L
(F2.0
L4220528L
tp381
sL25386L
(F16.0
L4220528L
tp382
sL15149L
(F262144.0
L4220528L
tp383
sL25391L
(F4.0
L4220528L
tp384
sL23344L
(F1.3333333333333333
L4220528L
tp385
sL21300L
(F1024.0
L4220528L
tp386
sL15158L
(F131072.0
L4220528L
tp387
sL19256L
(F3.384615384615385
L4220528L
tp388
sL6970L
(F1.0
L4220528L
tp389
sL21308L
(F2048.0
L4220528L
tp390
sL6976L
(F1.0
L4220528L
tp391
sL25408L
(F8.0
L4220528L
tp392
sL15169L
(F262144.0
L4220528L
tp393
sL13123L
(F1.4545454545454546
L4220528L
tp394
sL21316L
(F4096.0
L4220528L
tp395
sL6987L
(F1.3333333333333333
L4220528L
tp396
sL15179L
(F131072.0
L4220528L
tp397
sL21325L
(F8192.0
L4220528L
tp398
sL13134L
(F5.333333333333333
L4220528L
tp399
sL6992L
(F2.0
L4220528L
tp400
sL19280L
(F22.0
L4220528L
tp401
sL21329L
(F8192.0
L4220528L
tp402
sL25425L
(F4.571428571428571
L4220528L
tp403
sL23378L
(F2.6666666666666665
L4220528L
tp404
sL15190L
(F262144.0
L4220528L
tp405
sL19288L
(F44.0
L4220528L
tp406
sL21336L
(F16.0
L4220528L
tp407
sL7002L
(F4.0
L4220528L
tp408
sL11098L
(F2.0
L4220528L
tp409
sL15200L
(F131072.0
L4220528L
tp410
sL21345L
(F32.0
L4220528L
tp411
sL23398L
(F1.3333333333333333
L4220528L
tp412
sL21358L
(F64.0
L4220528L
tp413
sL7024L
(F1.0
L4220528L
tp414
sL11120L
(F0.988215780148528
L4220528L
tp415
sL15216L
(F1927.5294117647059
L4220528L
tp416
sL15228L
(F3855.0588235294117
L4220528L
tp417
sL13184L
(F1.0
L4220528L
tp418
sL11138L
(F4.0
L4220528L
tp419
sL13189L
(F2.0
L4220528L
tp420
sL23436L
(F2.6666666666666665
L4220528L
tp421
sL25485L
(F9.142857142857142
L4220528L
tp422
sL11152L
(F8.0
L4220528L
tp423
sL19344L
(F44.0
L4220528L
tp424
sL21394L
(F128.0
L4220528L
tp425
sL11166L
(F2.6666666666666665
L4220528L
tp426
sL17312L
(F1.0
L4220528L
tp427
sL13216L
(F2.0
L4220528L
tp428
sL21408L
(F232.52401746724888
L4220528L
tp429
sL23456L
(F1.3333333333333333
L4220528L
tp430
sL11171L
(F8.0
L4220528L
tp431
sL25509L
(F18.285714285714285
L4220528L
tp432
sL7078L
(F0.9846153846153847
L4220528L
tp433
sL21421L
(F106496.0
L4220528L
tp434
sL15279L
(F3383.3985303570753
L4220528L
tp435
sL5040L
(F1.0
L4220528L
tp436
sL7088L
(F2.0
L4220528L
tp437
sL13232L
(F1.0
L4220528L
tp438
sL25520L
(F11.301989695833063
L4220528L
tp439
sL21426L
(F35498.666666666664
L4220528L
tp440
sL13238L
(F2.0
L4220528L
tp441
sL21431L
(F212992.0
L4220528L
tp442
sL15288L
(F5436.502303727481
L4220528L
tp443
sL17339L
(F2.0
L4220528L
tp444
sL21436L
(F7745.163636363636
L4220528L
tp445
sL7101L
(F0.7901234567901234
L4220528L
tp446
sL25534L
(F26.5596757852077
L4220528L
tp447
sL17344L
(F4.0
L4220528L
tp448
sL5056L
(F2.0
L4220528L
tp449
sL5061L
(F1.0
L4220528L
tp450
sL13256L
(F4.0
L4220528L
tp451
sL25545L
(F19.47433325904465
L4220528L
tp452
sL11210L
(F4.0
L4220528L
tp453
sL23498L
(F2.6666666666666665
L4220528L
tp454
sL17357L
(F1.3333333333333333
L4220528L
tp455
sL15312L
(F15420.235294117647
L4220528L
tp456
sL19408L
(F44.0
L4220528L
tp457
sL25553L
(F73.14285714285714
L4220528L
tp458
sL21460L
(F106496.0
L4220528L
tp459
sL25558L
(F146.28571428571428
L4220528L
tp460
sL13272L
(F8.0
L4220528L
tp461
sL15321L
(F30840.470588235294
L4220528L
tp462
sL21469L
(F106496.0
L4220528L
tp463
sL15326L
(F61680.94117647059
L4220528L
tp464
sL23518L
(F1.3333333333333333
L4220528L
tp465
sL25567L
(F292.57142857142856
L4220528L
tp466
sL7138L
(F2.0
L4220528L
tp467
sL15330L
(F30840.470588235294
L4220528L
tp468
sL9192L
(F4.0
L4220528L
tp469
sL13290L
(F16.0
L4220528L
tp470
sL7147L
(F3.3684210526315788
L4220528L
tp471
sL15339L
(F61680.94117647059
L4220528L
tp472
sL11246L
(F8.0
L4220528L
tp473
sL21489L
(F35498.666666666664
L4220528L
tp474
sL7154L
(F8.0
L4220528L
tp475
sL9204L
(F1.6
L4220528L
tp476
sL7159L
(F16.0
L4220528L
tp477
sL15352L
(F30840.470588235294
L4220528L
tp478
sL21498L
(F212992.0
L4220528L
tp479
sL9216L
(F2.2857142857142856
L4220528L
tp480
sL15361L
(F61680.94117647059
L4220528L
tp481
sL11268L
(F4.0
L4220528L
tp482
sL7173L
(F32.0
L4220528L
tp483
sL21511L
(F141994.66666666666
L4220528L
tp484
sL13320L
(F32.0
L4220528L
tp485
sL23560L
(F2.6666666666666665
L4220528L
tp486
sL25609L
(F585.1428571428571
L4220528L
tp487
sL25614L
(F390.0952380952381
L4220528L
tp488
sL21519L
(F106496.0
L4220528L
tp489
sL15377L
(F30840.470588235294
L4220528L
tp490
sL7186L
(F3.657142857142857
L4220528L
tp491
sL13331L
(F2.0
L4220528L
tp492
sL7190L
(F9.142857142857142
L4220528L
tp493
sL19480L
(F44.0
L4220528L
tp494
sL9241L
(F8.0
L4220528L
tp495
sL23580L
(F1.3333333333333333
L4220528L
tp496
sL15389L
(F10280.156862745098
L4220528L
tp497
sL13347L
(F2.0
L4220528L
tp498
sL21539L
(F35498.666666666664
L4220528L
tp499
sL25637L
(F1170.2857142857142
L4220528L
tp500
sL21544L
(F23665.777777777777
L4220528L
tp501
sL15402L
(F20560.313725490196
L4220528L
tp502
sL11310L
(F8.0
L4220528L
tp503
sL15407L
(F41120.62745098039
L4220528L
tp504
sL15411L
(F20560.313725490196
L4220528L
tp505
sL21558L
(F106496.0
L4220528L
tp506
sL15420L
(F4299.610875745805
L4220528L
tp507
sL19516L
(F22.0
L4220528L
tp508
sL11326L
(F4.0
L4220528L
tp509
sL7232L
(F4.571428571428571
L4220528L
tp510
sL15425L
(F15420.235294117647
L4220528L
tp511
sL13379L
(F1.0
L4220528L
tp512
sL15430L
(F30840.470588235294
L4220528L
tp513
sL23622L
(F2.6666666666666665
L4220528L
tp514
sL9288L
(F16.0
L4220528L
tp515
sL21578L
(F35498.666666666664
L4220528L
tp516
sL15435L
(F61680.94117647059
L4220528L
tp517
sL15439L
(F30840.470588235294
L4220528L
tp518
sL25679L
(F780.1904761904761
L4220528L
tp519
sL13392L
(F1.0
L4220528L
tp520
sL21586L
(F32768.0
L4220528L
tp521
sL7255L
(F9.142857142857142
L4220528L
tp522
sL23642L
(F1.3333333333333333
L4220528L
tp523
sL21595L
(F212992.0
L4220528L
tp524
sL11359L
(F8.0
L4220528L
tp525
sL15456L
(F16.0
L4220528L
tp526
sL17504L
(F1.0
L4220528L
tp527
sL9314L
(F6.4
L4220528L
tp528
sL21602L
(F106496.0
L4220528L
tp529
sL15464L
(F32.0
L4220528L
tp530
sL25704L
(F2340.5714285714284
L4220528L
tp531
sL21611L
(F425984.0
L4220528L
tp532
sL15472L
(F64.0
L4220528L
tp533
sL7280L
(F2.0
L4220528L
tp534
sL19568L
(F44.0
L4220528L
tp535
sL21616L
(F106496.0
L4220528L
tp536
sL13431L
(F2.0
L4220528L
tp537
sL15480L
(F32.0
L4220528L
tp538
sL11385L
(F4.0
L4220528L
tp539
sL21636L
(F35498.666666666664
L4220528L
tp540
sL23684L
(F2.6666666666666665
L4220528L
tp541
sL11398L
(F8.0
L4220528L
tp542
sL11403L
(F2.6666666666666665
L4220528L
tp543
sL21646L
(F212992.0
L4220528L
tp544
sL21653L
(F106496.0
L4220528L
tp545
sL23704L
(F1.3333333333333333
L4220528L
tp546
sL11419L
(F5.333333333333333
L4220528L
tp547
sL9375L
(F4.571428571428571
L4220528L
tp548
sL15520L
(F16.0
L4220528L
tp549
sL19616L
(F44.0
L4220528L
tp550
sL25761L
(F4681.142857142857
L4220528L
tp551
sL21666L
(F30427.428571428565
L4220528L
tp552
sL11428L
(F10.666666666666666
L4220528L
tp553
sL21671L
(F212992.0
L4220528L
tp554
sL15528L
(F32.0
L4220528L
tp555
sL7339L
(F8.0
L4220528L
tp556
sL15536L
(F64.0
L4220528L
tp557
sL11443L
(F21.333333333333332
L4220528L
tp558
sL21686L
(F53248.0
L4220528L
tp559
sL15544L
(F32.0
L4220528L
tp560
sL25786L
(F2340.5714285714284
L4220528L
tp561
sL21691L
(F17749.333333333332
L4220528L
tp562
sL23746L
(F2.6666666666666665
L4220528L
tp563
sL25795L
(F9362.285714285714
L4220528L
tp564
sL9418L
(F8.0
L4220528L
tp565
sL13514L
(F4.0
L4220528L
tp566
sL21710L
(F106496.0
L4220528L
tp567
sL13519L
(F2.0
L4220528L
tp568
sL7376L
(F4.923076923076923
L4220528L
tp569
sL11472L
(F21.333333333333332
L4220528L
tp570
sL13524L
(F4.0
L4220528L
tp571
sL23766L
(F1.3333333333333333
L4220528L
tp572
sL13529L
(F1.0
L4220528L
tp573
sL19673L
(F22.0
L4220528L
tp574
sL21721L
(F106496.0
L4220528L
tp575
sL7386L
(F32.0
L4220528L
tp576
sL13536L
(F1.0
L4220528L
tp577
sL15584L
(F16.0
L4220528L
tp578
sL7399L
(F64.0
L4220528L
tp579
sL21741L
(F35498.666666666664
L4220528L
tp580
sL7408L
(F8.0
L4220528L
tp581
sL21751L
(F212992.0
L4220528L
tp582
sL7416L
(F16.0
L4220528L
tp583
sL9465L
(F16.0
L4220528L
tp584
sL13563L
(F2.0
L4220528L
tp585
sL11516L
(F85.33333333333333
L4220528L
tp586
sL21758L
(F106496.0
L4220528L
tp587
sL13568L
(F1.0178926441351888
L4220528L
tp588
sL7424L
(F32.0
L4220528L
tp589
sL23808L
(F2.6666666666666665
L4220528L
tp590
sL15624L
(F16.0
L4220528L
tp591
sL21771L
(F30427.428571428565
L4220528L
tp592
sL25868L
(F36.50013923698134
L4220528L
tp593
sL7438L
(F64.0
L4220528L
tp594
sL9487L
(F10.666666666666666
L4220528L
tp595
sL19728L
(F44.0
L4220528L
tp596
sL21776L
(F212992.0
L4220528L
tp597
sL23828L
(F1.3333333333333333
L4220528L
tp598
sL11544L
(F17.066666666666666
L4220528L
tp599
sL7449L
(F42.666666666666664
L4220528L
tp600
sL7452L
(F16.0
L4220528L
tp601
sL21791L
(F106496.0
L4220528L
tp602
sL25887L
(F59.91862857142857
L4220528L
tp603
sL13600L
(F2.0
L4220528L
tp604
sL7457L
(F12.8
L4220528L
tp605
sL17700L
(F2.0
L4220528L
tp606
sL13612L
(F4.0
L4220528L
tp607
sL17709L
(F1.0
L4220528L
tp608
sL25904L
(F129.8063877197326
L4220528L
tp609
sL21811L
(F35498.666666666664
L4220528L
tp610
sL25909L
(F5.568645778013808
L4220528L
tp611
sL13624L
(F8.0
L4220528L
tp612
sL15672L
(F16.0
L4220528L
tp613
sL9529L
(F7.111111111111111
L4220528L
tp614
sL7482L
(F32.0
L4220528L
tp615
sL11578L
(F85.33333333333333
L4220528L
tp616
sL21821L
(F212992.0
L4220528L
tp617
sL13630L
(F16.0
L4220528L
tp618
sL23870L
(F2.6666666666666665
L4220528L
tp619
sL25920L
(F585.1428571428571
L4220528L
tp620
sL13636L
(F32.0
L4220528L
tp621
sL21828L
(F106496.0
L4220528L
tp622
sL9545L
(F32.0
L4220528L
tp623
sL13642L
(F64.0
L4220528L
tp624
sL25931L
(F292.57142857142856
L4220528L
tp625
sL11598L
(F42.666666666666664
L4220528L
tp626
sL9550L
(F16.0
L4220528L
tp627
sL25936L
(F585.1428571428571
L4220528L
tp628
sL21841L
(F30427.428571428565
L4220528L
tp629
sL23890L
(F1.3333333333333333
L4220528L
tp630
sL25941L
(F234.05714285714285
L4220528L
tp631
sL21846L
(F212992.0
L4220528L
tp632
sL19800L
(F2.0
L4220528L
tp633
sL25951L
(F585.1428571428571
L4220528L
tp634
sL17760L
(F1.0
L4220528L
tp635
sL21861L
(F106496.0
L4220528L
tp636
sL13672L
(F4.0
L4220528L
tp637
sL15720L
(F16.0
L4220528L
tp638
sL25961L
(F4.571428571428571
L4220528L
tp639
sL15722L
(F32.0
L4220528L
tp640
sL21866L
(F35498.666666666664
L4220528L
tp641
sL25967L
(F4.4159121345607995
L4220528L
tp642
sL23920L
(F8.0
L4220528L
tp643
sL7539L
(F32.0
L4220528L
tp644
sL13684L
(F8.0
L4220528L
tp645
sL17782L
(F2.0
L4220528L
tp646
sL11639L
(F85.33333333333333
L4220528L
tp647
sL19832L
(F3.666666666666667
L4220528L
tp648
sL13690L
(F16.0
L4220528L
tp649
sL25979L
(F390.0952380952381
L4220528L
tp650
sL21885L
(F212992.0
L4220528L
tp651
sL9600L
(F1.0
L4220528L
tp652
sL7552L
(F64.0
L4220528L
tp653
sL13696L
(F32.0
L4220528L
tp654
sL25988L
(F780.1904761904761
L4220528L
tp655
sL25990L
(F18.285714285714285
L4220528L
tp656
sL21896L
(F106496.0
L4220528L
tp657
sL9610L
(F2.0
L4220528L
tp658
sL13706L
(F64.0
L4220528L
tp659
sL11659L
(F42.666666666666664
L4220528L
tp660
sL25998L
(F5.821864416190106
L4220528L
tp661
sL17808L
(F1.3333333333333333
L4220528L
tp662
sL23952L
(F1.0
L4220528L
tp663
sL13716L
(F128.0
L4220528L
tp664
sL15766L
(F32.0
L4220528L
tp665
sL26006L
(F4681.142857142857
L4220528L
tp666
sL23962L
(F1.1428571428571428
L4220528L
tp667
sL21916L
(F35498.666666666664
L4220528L
tp668
sL13726L
(F256.0
L4220528L
tp669
sL23968L
(F2.0
L4220528L
tp670
sL17825L
(F1.3333333333333333
L4220528L
tp671
sL21926L
(F212992.0
L4220528L
tp672
sL13736L
(F512.0
L4220528L
tp673
sL23978L
(F4.0
L4220528L
tp674
sL9644L
(F4.0
L4220528L
tp675
sL21933L
(F106496.0
L4220528L
tp676
sL17839L
(F2.6666666666666665
L4220528L
tp677
sL23985L
(F8.0
L4220528L
tp678
sL11701L
(F85.33333333333333
L4220528L
tp679
sL21946L
(F30427.428571428565
L4220528L
tp680
sL26043L
(F9362.285714285714
L4220528L
tp681
sL21951L
(F212992.0
L4220528L
tp682
sL13760L
(F1.0
L4220528L
tp683
sL19904L
(F1.0
L4220528L
tp684
sL15810L
(F18.285714285714285
L4220528L
tp685
sL7620L
(F64.0
L4220528L
tp686
sL15816L
(F51.2
L4220528L
tp687
sL11721L
(F42.666666666666664
L4220528L
tp688
sL19913L
(F2.0
L4220528L
tp689
sL17866L
(F1.3333333333333333
L4220528L
tp690
sL21966L
(F106496.0
L4220528L
tp691
sL9680L
(F2.0
L4220528L
tp692
sL19920L
(F1.3333333333333333
L4220528L
tp693
sL17875L
(F2.6666666666666665
L4220528L
tp694
sL15828L
(F102.4
L4220528L
tp695
sL24022L
(F16.0
L4220528L
tp696
sL26070L
(F4.923076923076923
L4220528L
tp697
sL19931L
(F1.3333333333333333
L4220528L
tp698
sL26075L
(F16.0
L4220528L
tp699
sL19936L
(F1.0
L4220528L
tp700
sL15840L
(F68.26666666666667
L4220528L
tp701
sL11744L
(F85.33333333333333
L4220528L
tp702
sL21986L
(F35498.666666666664
L4220528L
tp703
sL24034L
(F8.0
L4220528L
tp704
sL7652L
(F128.0
L4220528L
tp705
sL15845L
(F204.8
L4220528L
tp706
sL17894L
(F1.3333333333333333
L4220528L
tp707
sL11752L
(F170.66666666666666
L4220528L
tp708
sL15848L
(F102.4
L4220528L
tp709
sL21996L
(F212992.0
L4220528L
tp710
sL9712L
(F4.0
L4220528L
tp711
sL24048L
(F1.0
L4220528L
tp712
sL26096L
(F1.0
L4220528L
tp713
sL22003L
(F106496.0
L4220528L
tp714
sL15860L
(F29.257142857142856
L4220528L
tp715
sL11765L
(F341.3333333333333
L4220528L
tp716
sL11768L
(F94.16091954022988
L4220528L
tp717
sL19968L
(F2.0
L4220528L
tp718
sL22016L
(F30427.428571428565
L4220528L
tp719
sL11781L
(F682.6666666666666
L4220528L
tp720
sL22021L
(F212992.0
L4220528L
tp721
sL22036L
(F2048.0
L4220528L
tp722
sL11801L
(F1365.3333333333333
L4220528L
tp723
sL19993L
(F2.0
L4220528L
tp724
sL24089L
(F2.0
L4220528L
tp725
sL11803L
(F455.1111111111111
L4220528L
tp726
sL11808L
(F88.08602150537635
L4220528L
tp727
sL7712L
(F16.0
L4220528L
tp728
sL20003L
(F0.8
L4220528L
tp729
sL26150L
(F2.0
L4220528L
tp730
sL11816L
(F63.50387596899225
L4220528L
tp731
sL22056L
(F273.06666666666666
L4220528L
tp732
sL20011L
(F2.0
L4220528L
tp733
sL24109L
(F1.0
L4220528L
tp734
sL15920L
(F36.57142857142857
L4220528L
tp735
sL5680L
(F1.0
L4220528L
tp736
sL26160L
(F1.3333333333333333
L4220528L
tp737
sL11826L
(F1820.4444444444443
L4220528L
tp738
sL9781L
(F8.0
L4220528L
tp739
sL22069L
(F4096.0
L4220528L
tp740
sL22073L
(F4096.0
L4220528L
tp741
sL9788L
(F16.0
L4220528L
tp742
sL11838L
(F910.2222222222222
L4220528L
tp743
sL15936L
(F512.0
L4220528L
tp744
sL22080L
(F53248.0
L4220528L
tp745
sL20035L
(F4.0
L4220528L
tp746
sL13893L
(F2.0
L4220528L
tp747
sL26182L
(F1.3333333333333333
L4220528L
tp748
sL20040L
(F1.3333333333333333
L4220528L
tp749
sL22088L
(F53248.0
L4220528L
tp750
sL13898L
(F2.0
L4220528L
tp751
sL15952L
(F3855.0588235294117
L4220528L
tp752
sL22098L
(F53248.0
L4220528L
tp753
sL7763L
(F32.0
L4220528L
tp754
sL24147L
(F2.0
L4220528L
tp755
sL13912L
(F8.0
L4220528L
tp756
sL22106L
(F53248.0
L4220528L
tp757
sL20064L
(F8.0
L4220528L
tp758
sL7781L
(F64.0
L4220528L
tp759
sL20069L
(F8.0
L4220528L
tp760
sL15974L
(F3855.0588235294117
L4220528L
tp761
sL24167L
(F1.0
L4220528L
tp762
sL20074L
(F1.0
L4220528L
tp763
sL11886L
(F1820.4444444444443
L4220528L
tp764
sL18032L
(F1.0
L4220528L
tp765
sL20080L
(F1.0
L4220528L
tp766
sL26224L
(F1.0
L4220528L
tp767
sL22129L
(F53248.0
L4220528L
tp768
sL11892L
(F3640.8888888888887
L4220528L
tp769
sL13944L
(F2.12008281573499
L4220528L
tp770
sL26236L
(F2.0
L4220528L
tp771
sL11907L
(F21.147466924814456
L4220528L
tp772
sL20101L
(F2.0
L4220528L
tp773
sL22152L
(F53248.0
L4220528L
tp774
sL7823L
(F32.0
L4220528L
tp775
sL26256L
(F2.0
L4220528L
tp776
sL24209L
(F2.0
L4220528L
tp777
sL7830L
(F9.142857142857142
L4220528L
tp778
sL13975L
(F2.120014233493999
L4220528L
tp779
sL16025L
(F3747.109857896647
L4220528L
tp780
sL22175L
(F53248.0
L4220528L
tp781
sL24229L
(F1.0
L4220528L
tp782
sL13991L
(F16.0
L4220528L
tp783
sL7856L
(F1.0
L4220528L
tp784
sL14000L
(F15.995800643924703
L4220528L
tp785
sL9910L
(F8.0
L4220528L
tp786
sL22198L
(F53248.0
L4220528L
tp787
sL18103L
(F2.0
L4220528L
tp788
sL14008L
(F15.995800643924703
L4220528L
tp789
sL20156L
(F1.0
L4220528L
tp790
sL18110L
(F2.0
L4220528L
tp791
sL9920L
(F16.0
L4220528L
tp792
sL18115L
(F1.0
L4220528L
tp793
sL7877L
(F2.0
L4220528L
tp794
sL9930L
(F32.0
L4220528L
tp795
sL14026L
(F64.0
L4220528L
tp796
sL7883L
(F4.0
L4220528L
tp797
sL11981L
(F83.85924504158669
L4220528L
tp798
sL22221L
(F53248.0
L4220528L
tp799
sL24271L
(F2.0
L4220528L
tp800
sL18128L
(F1.0
L4220528L
tp801
sL7888L
(F1.3333333333333333
L4220528L
tp802
sL14034L
(F128.0
L4220528L
tp803
sL16082L
(F15420.235294117647
L4220528L
tp804
sL16092L
(F30840.470588235294
L4220528L
tp805
sL12001L
(F41.929622520793345
L4220528L
tp806
sL14050L
(F256.0
L4220528L
tp807
sL24291L
(F1.0
L4220528L
tp808
sL22244L
(F53248.0
L4220528L
tp809
sL16102L
(F61680.94117647059
L4220528L
tp810
sL14056L
(F512.0
L4220528L
tp811
sL16109L
(F123361.88235294117
L4220528L
tp812
sL5872L
(F2.0
L4220528L
tp813
sL9971L
(F64.0
L4220528L
tp814
sL16116L
(F246723.76470588235
L4220528L
tp815
sL9978L
(F128.0
L4220528L
tp816
sL16122L
(F493447.5294117647
L4220528L
tp817
sL22267L
(F53248.0
L4220528L
tp818
sL7936L
(F1.0
L4220528L
tp819
sL14086L
(F128.0
L4220528L
tp820
sL16136L
(F358870.9304812834
L4220528L
tp821
sL20234L
(F2.0
L4220528L
tp822
sL24333L
(F2.0
L4220528L
tp823
sL14095L
(F256.0
L4220528L
tp824
sL12048L
(F83.85924504158669
L4220528L
tp825
sL20242L
(F2.0
L4220528L
tp826
sL22290L
(F26624.0
L4220528L
tp827
sL16150L
(F986895.0588235294
L4220528L
tp828
sL18200L
(F2.0
L4220528L
tp829
sL22298L
(F819.2
L4220528L
tp830
sL5920L
(F1.0
L4220528L
tp831
sL18209L
(F2.0
L4220528L
tp832
sL24353L
(F1.0
L4220528L
tp833
sL12068L
(F41.929622520793345
L4220528L
tp834
sL22313L
(F512.0
L4220528L
tp835
sL16175L
(F657930.0392156863
L4220528L
tp836
sL16184L
(F66908.13958125623
L4220528L
tp837
sL22328L
(F212992.0
L4220528L
tp838
sL8000L
(F0.9990243902439024
L4220528L
tp839
sL14144L
(F512.0
L4220528L
tp840
sL8008L
(F1.1428571428571428
L4220528L
tp841
sL22346L
(F141994.66666666666
L4220528L
tp842
sL14155L
(F1024.0
L4220528L
tp843
sL24395L
(F2.0
L4220528L
tp844
sL18256L
(F1.0
L4220528L
tp845
sL12112L
(F83.85924504158669
L4220528L
tp846
sL10065L
(F64.0
L4220528L
tp847
sL8022L
(F2.245614035087719
L4220528L
tp848
sL14168L
(F33.03225806451613
L4220528L
tp849
sL10075L
(F128.0
L4220528L
tp850
sL22363L
(F2.0
L4220528L
tp851
sL24415L
(F1.0
L4220528L
tp852
sL8035L
(F4.413793103448276
L4220528L
tp853
sL12132L
(F41.929622520793345
L4220528L
tp854
sL10085L
(F256.0
L4220528L
tp855
sL14182L
(F2048.0
L4220528L
tp856
sL16231L
(F13826.90099927887
L4220528L
tp857
sL14186L
(F2048.0
L4220528L
tp858
sL8043L
(F0.8982456140350877
L4220528L
tp859
sL22388L
(F16.0
L4220528L
tp860
sL14200L
(F32768.0
L4220528L
tp861
sL22393L
(F1.0
L4220528L
tp862
sL22400L
(F1.0
L4220528L
tp863
sL14213L
(F65536.0
L4220528L
tp864
sL24457L
(F2.0
L4220528L
tp865
sL12173L
(F83.85924504158669
L4220528L
tp866
sL14222L
(F131072.0
L4220528L
tp867
sL16273L
(F8408.051619369793
L4220528L
tp868
sL14233L
(F262144.0
L4220528L
tp869
sL16283L
(F27653.80199855774
L4220528L
tp870
sL8093L
(F2.0
L4220528L
tp871
sL24477L
(F1.0
L4220528L
tp872
sL20384L
(F1.0
L4220528L
tp873
sL16288L
(F32768.0
L4220528L
tp874
sL6048L
(F1.0
L4220528L
tp875
sL8096L
(F1.6842105263157894
L4220528L
tp876
sL12193L
(F41.929622520793345
L4220528L
tp877
sL8101L
(F3.2
L4220528L
tp878
sL10150L
(F512.0
L4220528L
tp879
sL14246L
(F524288.0
L4220528L
tp880
sL22441L
(F2.0
L4220528L
tp881
sL8106L
(F8.0
L4220528L
tp882
sL16299L
(F65536.0
L4220528L
tp883
sL10157L
(F1024.0
L4220528L
tp884
sL20398L
(F2.0
L4220528L
tp885
sL14258L
(F1048576.0
L4220528L
tp886
sL20403L
(F1.3333333333333333
L4220528L
tp887
sL20405L
(F4.0
L4220528L
tp888
sL16312L
(F1973790.1176470588
L4220528L
tp889
sL20410L
(F1.0
L4220528L
tp890
sL14268L
(F2097152.0
L4220528L
tp891
sL22461L
(F1.0
L4220528L
tp892
sL20416L
(F1.0
L4220528L
tp893
sL24519L
(F2.0
L4220528L
tp894
sL16328L
(F65536.0
L4220528L
tp895
sL8137L
(F16.0
L4220528L
tp896
sL14284L
(F4194304.0
L4220528L
tp897
sL12240L
(F83.85924504158669
L4220528L
tp898
sL8145L
(F32.0
L4220528L
tp899
sL20433L
(F2.0
L4220528L
tp900
sL14295L
(F8388608.0
L4220528L
tp901
sL20439L
(F2.0
L4220528L
tp902
sL16344L
(F1.7777777777777777
L4220528L
tp903
sL24539L
(F1.0
L4220528L
tp904
sL16349L
(F7710.117647058823
L4220528L
tp905
sL14302L
(F16777216.0
L4220528L
tp906
sL20448L
(F1.0
L4220528L
tp907
sL22499L
(F2.0
L4220528L
tp908
sL12262L
(F41.929622520793345
L4220528L
tp909
sL14311L
(F8388608.0
L4220528L
tp910
sL20464L
(F1.0
L4220528L
tp911
sL14322L
(F16777216.0
L4220528L
tp912
sL22519L
(F1.0
L4220528L
tp913
sL20473L
(F2.0
L4220528L
tp914
sL14332L
(F8388608.0
L4220528L
tp915
sL18429L
(F2.0
L4220528L
tp916
sL8190L
(F64.0
L4220528L
tp917
sL20478L
(F1.3333333333333333
L4220528L
tp918
s.