(dp0
L16386L
(F524288.0
L4208064L
Vquotearg_buffer_restyled
p1
tp2
sL18434L
(F2.0
L4212560L
Vquotearg_char_mem
p3
tp4
sL24581L
(F2.0
L4218352L
Vclose_stream
p5
tp6
sL12295L
(F83.85924504158669
L4205328L
Vbase64_decode_ctx
p7
tp8
sL14343L
(F16777216.0
L4208064L
Vquotearg_buffer_restyled
p9
tp10
sL6153L
(F0.6956521739130435
L4200352L
Vmain
p11
tp12
sL20491L
(F2.6666666666666665
L4214768L
Vxrealloc
p13
tp14
sL8204L
(F128.0
L4202240L
Vdo_decode
p15
tp16
sL20496L
(F1.7777777777777777
L4214768L
Vxrealloc
p17
tp18
sL16400L
(F61680.94117647059
L4208064L
Vquotearg_buffer_restyled
p19
tp20
sL8208L
(F2.245614035087719
L4202240L
Vdo_decode
p21
tp22
sL14353L
(F8388608.0
L4208064L
Vquotearg_buffer_restyled
p23
tp24
sL20504L
(F4.0
L4214768L
Vxrealloc
p25
tp26
sL24601L
(F1.0
L4218352L
Vclose_stream
p27
tp28
sL14364L
(F16777216.0
L4208064L
Vquotearg_buffer_restyled
p29
tp30
sL10269L
(F85.33333333333333
L4203904L
Vdecode_4
p31
tp32
sL12319L
(F41.929622520793345
L4205328L
Vbase64_decode_ctx
p33
tp34
sL22561L
(F2.0
L4216704L
Vrpl_fclose
p35
tp36
sL20513L
(F5.333333333333333
L4214768L
Vxrealloc
p37
tp38
sL14374L
(F8388608.0
L4208064L
Vquotearg_buffer_restyled
p39
tp40
sL20518L
(F1.0
L4214832L
Vxnrealloc
p41
tp42
sL6185L
(F2.0
L4200352L
Vmain
p43
tp44
sL14384L
(F3372.982710092481
L4208064L
Vquotearg_buffer_restyled
p45
tp46
sL20528L
(F1.0
L4214832L
Vxnrealloc
p47
tp48
sL6194L
(F4.0
L4200352L
Vmain
p49
tp50
sL6196L
(F8.0
L4200352L
Vmain
p51
tp52
sL22581L
(F1.0
L4216704L
Vrpl_fclose
p53
tp54
sL14391L
(F6188.571007008484
L4208064L
Vquotearg_buffer_restyled
p55
tp56
sL10296L
(F256.0
L4203904L
Vdecode_4
p57
tp58
sL6203L
(F16.0
L4200352L
Vmain
p59
tp60
sL10302L
(F512.0
L4203904L
Vdecode_4
p61
tp62
sL10304L
(F8.827586206896552
L4203904L
Vdecode_4
p63
tp64
sL14401L
(F87609.48302872063
L4208064L
Vquotearg_buffer_restyled
p65
tp66
sL24643L
(F2.0
L4218352L
Vclose_stream
p67
tp68
sL10308L
(F2.1512605042016806
L4203904L
Vdecode_4
p69
tp70
sL20548L
(F2.0
L4214832L
Vxnrealloc
p71
tp72
sL6214L
(F32.0
L4200352L
Vmain
p73
tp74
sL20554L
(F2.0
L4214832L
Vxnrealloc
p75
tp76
sL16458L
(F123361.88235294117
L4208064L
Vquotearg_buffer_restyled
p77
tp78
sL8266L
(F256.0
L4202240L
Vdo_decode
p79
tp80
sL8272L
(F2.942528735632184
L4202240L
Vdo_decode
p81
tp82
sL6224L
(F6.4
L4200352L
Vmain
p83
tp84
sL16464L
(F246723.76470588235
L4208064L
Vquotearg_buffer_restyled
p85
tp86
sL18512L
(F1.0
L4212816L
Vquotearg_n_custom_mem
p87
tp88
sL20560L
(F1.0
L4214864L
Vx2nrealloc
p89
tp90
sL24663L
(F1.0
L4218352L
Vclose_stream
p91
tp92
sL10328L
(F2.0
L4203904L
Vdecode_4
p93
tp94
sL14424L
(F25031.280865348752
L4208064L
Vquotearg_buffer_restyled
p95
tp96
sL16472L
(F493447.5294117647
L4208064L
Vquotearg_buffer_restyled
p97
tp98
sL6233L
(F12.8
L4200352L
Vmain
p99
tp100
sL20571L
(F2.0
L4214864L
Vx2nrealloc
p101
tp102
sL14429L
(F26935.12502508529
L4208064L
Vquotearg_buffer_restyled
p103
tp104
sL22623L
(F2.0
L4216704L
Vrpl_fclose
p105
tp106
sL16479L
(F197379.01176470588
L4208064L
Vquotearg_buffer_restyled
p107
tp108
sL8288L
(F512.0
L4202240L
Vdo_decode
p109
tp110
sL10336L
(F32.0
L4203904L
Vdecode_4
p111
tp112
sL6242L
(F25.6
L4200352L
Vmain
p113
tp114
sL10342L
(F64.0
L4203904L
Vdecode_4
p115
tp116
sL14440L
(F77875.09602552945
L4208064L
Vquotearg_buffer_restyled
p117
tp118
sL8297L
(F682.6666666666666
L4202240L
Vdo_decode
p119
tp120
sL10348L
(F128.0
L4203904L
Vdecode_4
p121
tp122
sL16493L
(F281970.0168067227
L4208064L
Vquotearg_buffer_restyled
p123
tp124
sL14447L
(F155750.1920510589
L4208064L
Vquotearg_buffer_restyled
p125
tp126
sL20591L
(F4.0
L4214864L
Vx2nrealloc
p127
tp128
sL10352L
(F1.0
L4204656L
Vbase64_encode
p129
tp130
sL16496L
(F70492.50420168067
L4208064L
Vquotearg_buffer_restyled
p131
tp132
sL22643L
(F1.0
L4216704L
Vrpl_fclose
p133
tp134
sL8309L
(F585.1428571428571
L4202240L
Vdo_decode
p135
tp136
sL10357L
(F2.0
L4204656L
Vbase64_encode
p137
tp138
sL12405L
(F83.85924504158669
L4205328L
Vbase64_decode_ctx
p139
tp140
sL16503L
(F30840.470588235294
L4208064L
Vquotearg_buffer_restyled
p141
tp142
sL14456L
(F77875.09602552945
L4208064L
Vquotearg_buffer_restyled
p143
tp144
sL20602L
(F1.3333333333333333
L4214864L
Vx2nrealloc
p145
tp146
sL14460L
(F24724.643640047896
L4208064L
Vquotearg_buffer_restyled
p147
tp148
sL6268L
(F51.2
L4200352L
Vmain
p149
tp150
sL14464L
(F11225.50311546021
L4208064L
Vquotearg_buffer_restyled
p151
tp152
sL24705L
(F2.0
L4218352L
Vclose_stream
p153
tp154
sL12418L
(F28.278748651564186
L4205328L
Vbase64_decode_ctx
p155
tp156
sL14471L
(F60945.727324327396
L4208064L
Vquotearg_buffer_restyled
p157
tp158
sL10377L
(F1.3333333333333333
L4204656L
Vbase64_encode
p159
tp160
sL20624L
(F2.0
L4214864L
Vx2nrealloc
p161
tp162
sL14480L
(F30472.863662163698
L4208064L
Vquotearg_buffer_restyled
p163
tp164
sL12432L
(F10.666666666666666
L4205328L
Vbase64_decode_ctx
p165
tp166
sL20629L
(F4.0
L4214864L
Vx2nrealloc
p167
tp168
sL24725L
(F1.0
L4218352L
Vclose_stream
p169
tp170
sL8344L
(F1170.2857142857142
L4202240L
Vdo_decode
p171
tp172
sL22685L
(F2.0
L4216704L
Vrpl_fclose
p173
tp174
sL10400L
(F21.333333333333332
L4204656L
Vbase64_encode
p175
tp176
sL14500L
(F15.995800643924703
L4208064L
Vquotearg_buffer_restyled
p177
tp178
sL16549L
(F64.0
L4208064L
Vquotearg_buffer_restyled
p179
tp180
sL8365L
(F585.1428571428571
L4202240L
Vdo_decode
p181
tp182
sL12461L
(F21.333333333333332
L4205328L
Vbase64_decode_ctx
p183
tp184
sL20655L
(F4.0
L4214864L
Vx2nrealloc
p185
tp186
sL22705L
(F1.0
L4216704L
Vrpl_fclose
p187
tp188
sL14516L
(F15.997900046385697
L4208064L
Vquotearg_buffer_restyled
p189
tp190
sL20661L
(F1.0
L4214976L
Vx2realloc
p191
tp192
sL6325L
(F16.0
L4200352L
Vmain
p193
tp194
sL12470L
(F42.666666666666664
L4205328L
Vbase64_decode_ctx
p195
tp196
sL24767L
(F2.0
L4218352L
Vclose_stream
p197
tp198
sL20672L
(F1.0
L4214976L
Vx2realloc
p199
tp200
sL12480L
(F85.33333333333333
L4205328L
Vbase64_decode_ctx
p201
tp202
sL16578L
(F128.0
L4208064L
Vquotearg_buffer_restyled
p203
tp204
sL18630L
(F2.0
L4212816L
Vquotearg_n_custom_mem
p205
tp206
sL10438L
(F42.666666666666664
L4204656L
Vbase64_encode
p207
tp208
sL12487L
(F56.888888888888886
L4205328L
Vbase64_decode_ctx
p209
tp210
sL20680L
(F2.0
L4214976L
Vx2realloc
p211
tp212
sL14536L
(F31.995800092771393
L4208064L
Vquotearg_buffer_restyled
p213
tp214
sL18635L
(F4.0
L4212816L
Vquotearg_n_custom_mem
p215
tp216
sL14545L
(F21.33053339518093
L4208064L
Vquotearg_buffer_restyled
p217
tp218
sL24787L
(F1.0
L4218352L
Vclose_stream
p219
tp220
sL10452L
(F85.33333333333333
L4204656L
Vbase64_encode
p221
tp222
sL12503L
(F113.77777777777777
L4205328L
Vbase64_decode_ctx
p223
tp224
sL20695L
(F4.0
L4214976L
Vx2realloc
p225
tp226
sL8411L
(F1170.2857142857142
L4202240L
Vdo_decode
p227
tp228
sL22747L
(F2.0
L4216704L
Vrpl_fclose
p229
tp230
sL12508L
(F227.55555555555554
L4205328L
Vbase64_decode_ctx
p231
tp232
sL16607L
(F32.0
L4208064L
Vquotearg_buffer_restyled
p233
tp234
sL14562L
(F42.66106679036186
L4208064L
Vquotearg_buffer_restyled
p235
tp236
sL6372L
(F12.8
L4200352L
Vmain
p237
tp238
sL14569L
(F85.32213358072372
L4208064L
Vquotearg_buffer_restyled
p239
tp240
sL6383L
(F4.0
L4200352L
Vmain
p241
tp242
sL22767L
(F1.0
L4216704L
Vrpl_fclose
p243
tp244
sL20720L
(F2.0
L4214976L
Vx2realloc
p245
tp246
sL18675L
(F8.0
L4212816L
Vquotearg_n_custom_mem
p247
tp248
sL8436L
(F585.1428571428571
L4202240L
Vdo_decode
p249
tp250
sL12534L
(F113.77777777777777
L4205328L
Vbase64_decode_ctx
p251
tp252
sL18680L
(F1.3333333333333333
L4212816L
Vquotearg_n_custom_mem
p253
tp254
sL10492L
(F170.66666666666666
L4204656L
Vbase64_encode
p255
tp256
sL18685L
(F8.0
L4212816L
Vquotearg_n_custom_mem
p257
tp258
sL24829L
(F2.0
L4218352L
Vclose_stream
p259
tp260
sL16640L
(F32.0
L4208064L
Vquotearg_buffer_restyled
p261
tp262
sL14592L
(F56.881422387149144
L4208064L
Vquotearg_buffer_restyled
p263
tp264
sL14597L
(F170.64426716144743
L4208064L
Vquotearg_buffer_restyled
p265
tp266
sL20743L
(F4.0
L4214976L
Vx2realloc
p267
tp268
sL14600L
(F85.32213358072372
L4208064L
Vquotearg_buffer_restyled
p269
tp270
sL12561L
(F75.85185185185185
L4205328L
Vbase64_decode_ctx
p271
tp272
sL24849L
(F1.0
L4218352L
Vclose_stream
p273
tp274
sL10514L
(F341.3333333333333
L4204656L
Vbase64_encode
p275
tp276
sL14612L
(F24.377752451635345
L4208064L
Vquotearg_buffer_restyled
p277
tp278
sL10520L
(F682.6666666666666
L4204656L
Vbase64_encode
p279
tp280
sL22809L
(F2.0
L4216704L
Vrpl_fclose
p281
tp282
sL10524L
(F113.77777777777777
L4204656L
Vbase64_encode
p283
tp284
sL6429L
(F3.1219512195121952
L4200352L
Vmain
p285
tp286
sL12573L
(F105.02564102564102
L4205328L
Vbase64_decode_ctx
p287
tp288
sL14626L
(F48.75550490327069
L4208064L
Vquotearg_buffer_restyled
p289
tp290
sL16676L
(F34.68752876813453
L4208064L
Vquotearg_buffer_restyled
p291
tp292
sL6439L
(F3.1219512195121952
L4200352L
Vmain
p293
tp294
sL10536L
(F1.3178893178893178
L4204656L
Vbase64_encode
p295
tp296
sL12584L
(F1365.3333333333333
L4205328L
Vbase64_decode_ctx
p297
tp298
sL16681L
(F1.0
L4210992L
Vquotearg_n_options
p299
tp300
sL22829L
(F1.0
L4216704L
Vrpl_fclose
p301
tp302
sL8495L
(F585.1428571428571
L4202240L
Vdo_decode
p303
tp304
sL20784L
(F1.0
L4215088L
Vxcalloc
p305
tp306
sL16688L
(F1.0
L4210992L
Vquotearg_n_options
p307
tp308
sL14640L
(F32768.0
L4208064L
Vquotearg_buffer_restyled
p309
tp310
sL10545L
(F2.6666666666666665
L4204656L
Vbase64_encode
p311
tp312
sL6450L
(F2.0
L4200352L
Vmain
p313
tp314
sL8500L
(F780.1904761904761
L4202240L
Vdo_decode
p315
tp316
sL10550L
(F5.333333333333333
L4204656L
Vbase64_encode
p317
tp318
sL12600L
(F21.333333333333332
L4205328L
Vbase64_decode_ctx
p319
tp320
sL8507L
(F2.9388340807174886
L4202240L
Vdo_decode
p321
tp322
sL24891L
(F2.0
L4218352L
Vclose_stream
p323
tp324
sL20798L
(F2.0
L4215088L
Vxcalloc
p325
tp326
sL12607L
(F42.666666666666664
L4205328L
Vbase64_decode_ctx
p327
tp328
sL14657L
(F32768.0
L4208064L
Vquotearg_buffer_restyled
p329
tp330
sL6466L
(F4.0
L4200352L
Vmain
p331
tp332
sL20803L
(F2.0
L4215088L
Vxcalloc
p333
tp334
sL8515L
(F512.0
L4202240L
Vdo_decode
p335
tp336
sL14665L
(F26214.4
L4208064L
Vquotearg_buffer_restyled
p337
tp338
sL6476L
(F8.0
L4200352L
Vmain
p339
tp340
sL8525L
(F1024.0
L4202240L
Vdo_decode
p341
tp342
sL24911L
(F1.0
L4218352L
Vclose_stream
p343
tp344
sL6480L
(F4.0
L4200352L
Vmain
p345
tp346
sL12625L
(F5.333333333333333
L4205328L
Vbase64_decode_ctx
p347
tp348
sL14674L
(F20164.923076923078
L4208064L
Vquotearg_buffer_restyled
p349
tp350
sL8531L
(F2048.0
L4202240L
Vdo_decode
p351
tp352
sL12630L
(F4.048806103851976
L4205328L
Vbase64_decode_ctx
p353
tp354
sL10582L
(F10.666666666666666
L4204656L
Vbase64_encode
p355
tp356
sL6486L
(F5.333333333333333
L4200352L
Vmain
p357
tp358
sL22871L
(F2.0
L4216704L
Vrpl_fclose
p359
tp360
sL8539L
(F4096.0
L4202240L
Vdo_decode
p361
tp362
sL14685L
(F24966.095238095237
L4208064L
Vquotearg_buffer_restyled
p363
tp364
sL10595L
(F21.333333333333332
L4204656L
Vbase64_encode
p365
tp366
sL14696L
(F49932.19047619047
L4208064L
Vquotearg_buffer_restyled
p367
tp368
sL16746L
(F2.0
L4210992L
Vquotearg_n_options
p369
tp370
sL22891L
(F1.0
L4216704L
Vrpl_fclose
p371
tp372
sL12654L
(F10.666666666666666
L4205328L
Vbase64_decode_ctx
p373
tp374
sL6511L
(F4.571428571428571
L4200352L
Vmain
p375
tp376
sL14704L
(F927.4592424446587
L4208064L
Vquotearg_buffer_restyled
p377
tp378
sL8560L
(F10.666666666666666
L4202240L
Vdo_decode
p379
tp380
sL16755L
(F4.0
L4210992L
Vquotearg_n_options
p381
tp382
sL10614L
(F42.666666666666664
L4204656L
Vbase64_encode
p383
tp384
sL14710L
(F59.975959664903456
L4208064L
Vquotearg_buffer_restyled
p385
tp386
sL24957L
(F2.0
L4218352L
Vclose_stream
p387
tp388
sL12669L
(F42.666666666666664
L4205328L
Vbase64_decode_ctx
p389
tp390
sL10624L
(F56.888888888888886
L4204656L
Vbase64_encode
p391
tp392
sL8576L
(F2340.5714285714284
L4202240L
Vdo_decode
p393
tp394
sL6529L
(F32.0
L4200352L
Vmain
p395
tp396
sL24961L
(F4.0
L4218352L
Vclose_stream
p397
tp398
sL10633L
(F170.66666666666666
L4204656L
Vbase64_encode
p399
tp400
sL24971L
(F2.6666666666666665
L4218352L
Vclose_stream
p401
tp402
sL16782L
(F8.0
L4210992L
Vquotearg_n_options
p403
tp404
sL24976L
(F2.0
L4218352L
Vclose_stream
p405
tp406
sL10640L
(F85.33333333333333
L4204656L
Vbase64_encode
p407
tp408
sL24980L
(F4.0
L4218352L
Vclose_stream
p409
tp410
sL6548L
(F16.0
L4200352L
Vmain
p411
tp412
sL12692L
(F21.333333333333332
L4205328L
Vbase64_decode_ctx
p413
tp414
sL22933L
(F2.0
L4216704L
Vrpl_fclose
p415
tp416
sL12702L
(F227.55555555555554
L4205328L
Vbase64_decode_ctx
p417
tp418
sL6561L
(F21.333333333333332
L4200352L
Vmain
p419
tp420
sL10661L
(F1.8686131386861313
L4204656L
Vbase64_encode
p421
tp422
sL8616L
(F1170.2857142857142
L4202240L
Vdo_decode
p423
tp424
sL22953L
(F1.0
L4216704L
Vrpl_fclose
p425
tp426
sL16810L
(F4.0
L4210992L
Vquotearg_n_options
p427
tp428
sL14766L
(F17.343764384067264
L4208064L
Vquotearg_buffer_restyled
p429
tp430
sL12720L
(F83.85924504158669
L4205328L
Vbase64_decode_ctx
p431
tp432
sL10672L
(F1.7777777777777777
L4204656L
Vbase64_encode
p433
tp434
sL25008L
(F8.0
L4218352L
Vclose_stream
p435
tp436
sL10677L
(F3.5555555555555554
L4204656L
Vbase64_encode
p437
tp438
sL6583L
(F128.0
L4200352L
Vmain
p439
tp440
sL10681L
(F42.666666666666664
L4204656L
Vbase64_encode
p441
tp442
sL12729L
(F2.0
L4205328L
Vbase64_decode_ctx
p443
tp444
sL10683L
(F85.33333333333333
L4204656L
Vbase64_encode
p445
tp446
sL10685L
(F341.3333333333333
L4204656L
Vbase64_encode
p447
tp448
sL10687L
(F4.0
L4204656L
Vbase64_encode
p449
tp450
sL10692L
(F8.0
L4204656L
Vbase64_encode
p451
tp452
sL6596L
(F8.0
L4200352L
Vmain
p453
tp454
sL14789L
(F34.68752876813453
L4208064L
Vquotearg_buffer_restyled
p455
tp456
sL25032L
(F4.0
L4218352L
Vclose_stream
p457
tp458
sL12744L
(F1456.3555555555556
L4205328L
Vbase64_decode_ctx
p459
tp460
sL6603L
(F16.0
L4200352L
Vmain
p461
tp462
sL16844L
(F2.6666666666666665
L4210992L
Vquotearg_n_options
p463
tp464
sL10704L
(F5.333333333333333
L4204656L
Vbase64_encode
p465
tp466
sL18896L
(F1.0
L4213200L
Vversion_etc_arn
p467
tp468
sL20945L
(F1.0
L4215264L
Vxstrtoumax
p469
tp470
sL22995L
(F2.0
L4216704L
Vrpl_fclose
p471
tp472
sL6612L
(F32.0
L4200352L
Vmain
p473
tp474
sL12756L
(F10.666666666666666
L4205328L
Vbase64_decode_ctx
p475
tp476
sL8663L
(F819.2
L4202240L
Vdo_decode
p477
tp478
sL12761L
(F1.0
L4207072L
Vbase64_decode_alloc_ctx
p479
tp480
sL25056L
(F1.0
L4219360L
Vlocale_charset
p481
tp482
sL20960L
(F1.0
L4215264L
Vxstrtoumax
p483
tp484
sL12768L
(F1.0
L4207072L
Vbase64_decode_alloc_ctx
p485
tp486
sL14816L
(F32768.0
L4208064L
Vquotearg_buffer_restyled
p487
tp488
sL14821L
(F8738.133333333333
L4208064L
Vquotearg_buffer_restyled
p489
tp490
sL23015L
(F1.0
L4216704L
Vrpl_fclose
p491
tp492
sL6633L
(F64.0
L4200352L
Vmain
p493
tp494
sL8682L
(F1638.4
L4202240L
Vdo_decode
p495
tp496
sL14828L
(F65536.0
L4208064L
Vquotearg_buffer_restyled
p497
tp498
sL6639L
(F128.0
L4200352L
Vmain
p499
tp500
sL18928L
(F2.0
L4213200L
Vversion_etc_arn
p501
tp502
sL6646L
(F256.0
L4200352L
Vmain
p503
tp504
sL14839L
(F5349.877551020408
L4208064L
Vquotearg_buffer_restyled
p505
tp506
sL8700L
(F1638.4
L4202240L
Vdo_decode
p507
tp508
sL14848L
(F87381.33333333333
L4208064L
Vquotearg_buffer_restyled
p509
tp510
sL8705L
(F1.0
L4203024L
Vusage
p511
tp512
sL20999L
(F2.0
L4215264L
Vxstrtoumax
p513
tp514
sL18954L
(F1.0
L4213200L
Vversion_etc_arn
p515
tp516
sL8720L
(F1.0
L4203024L
Vusage
p517
tp518
sL14864L
(F32768.0
L4208064L
Vquotearg_buffer_restyled
p519
tp520
sL23057L
(F2.0
L4216704L
Vrpl_fclose
p521
tp522
sL14880L
(F32768.0
L4208064L
Vquotearg_buffer_restyled
p523
tp524
sL16929L
(F5.333333333333333
L4210992L
Vquotearg_n_options
p525
tp526
sL6693L
(F85.33333333333333
L4200352L
Vmain
p527
tp528
sL23077L
(F1.0
L4216704L
Vrpl_fclose
p529
tp530
sL12841L
(F2.0
L4207072L
Vbase64_decode_alloc_ctx
p531
tp532
sL25129L
(F2.0
L4219360L
Vlocale_charset
p533
tp534
sL25136L
(F10.666666666666666
L4219360L
Vlocale_charset
p535
tp536
sL14896L
(F32768.0
L4208064L
Vquotearg_buffer_restyled
p537
tp538
sL16945L
(F10.666666666666666
L4210992L
Vquotearg_n_options
p539
tp540
sL10809L
(F16.0
L4204656L
Vbase64_encode
p541
tp542
sL8762L
(F2.0
L4203024L
Vusage
p543
tp544
sL10811L
(F170.66666666666666
L4204656L
Vbase64_encode
p545
tp546
sL10816L
(F1.0
L4205120L
Vbase64_encode_alloc
p547
tp548
sL14912L
(F16384.0
L4208064L
Vquotearg_buffer_restyled
p549
tp550
sL12867L
(F4.0
L4207072L
Vbase64_decode_alloc_ctx
p551
tp552
sL16963L
(F5.333333333333333
L4210992L
Vquotearg_n_options
p553
tp554
sL6725L
(F16.0
L4200352L
Vmain
p555
tp556
sL12872L
(F8.0
L4207072L
Vbase64_decode_alloc_ctx
p557
tp558
sL21064L
(F4.0
L4215264L
Vxstrtoumax
p559
tp560
sL14921L
(F32768.0
L4208064L
Vquotearg_buffer_restyled
p561
tp562
sL25162L
(F1.2192092050890302
L4219360L
Vlocale_charset
p563
tp564
sL21071L
(F1.3333333333333333
L4215264L
Vxstrtoumax
p565
tp566
sL23119L
(F2.0
L4216704L
Vrpl_fclose
p567
tp568
sL12881L
(F1.0
L4207072L
Vbase64_decode_alloc_ctx
p569
tp570
sL25171L
(F4.0
L4219360L
Vlocale_charset
p571
tp572
sL14932L
(F65536.0
L4208064L
Vquotearg_buffer_restyled
p573
tp574
sL21081L
(F4.0
L4215264L
Vxstrtoumax
p575
tp576
sL14939L
(F131072.0
L4208064L
Vquotearg_buffer_restyled
p577
tp578
sL19038L
(F4.0
L4213200L
Vversion_etc_arn
p579
tp580
sL21086L
(F5.12
L4215264L
Vxstrtoumax
p581
tp582
sL8799L
(F1.8285714285714285
L4203024L
Vusage
p583
tp584
sL12897L
(F16.0
L4207072L
Vbase64_decode_alloc_ctx
p585
tp586
sL25186L
(F8.0
L4219360L
Vlocale_charset
p587
tp588
sL21091L
(F4.4885779313832925
L4215264L
Vxstrtoumax
p589
tp590
sL23139L
(F1.0
L4216704L
Vrpl_fclose
p591
tp592
sL14948L
(F65536.0
L4208064L
Vquotearg_buffer_restyled
p593
tp594
sL6757L
(F128.0
L4200352L
Vmain
p595
tp596
sL8806L
(F2.0
L4203024L
Vusage
p597
tp598
sL25192L
(F16.0
L4219360L
Vlocale_charset
p599
tp600
sL25199L
(F6.4
L4219360L
Vlocale_charset
p601
tp602
sL12912L
(F1.6
L4207072L
Vbase64_decode_alloc_ctx
p603
tp604
sL19056L
(F44.0
L4213200L
Vversion_etc_arn
p605
tp606
sL14961L
(F131072.0
L4208064L
Vquotearg_buffer_restyled
p607
tp608
sL10867L
(F2.0
L4205120L
Vbase64_encode_alloc
p609
tp610
sL21111L
(F16.0
L4215264L
Vxstrtoumax
p611
tp612
sL25212L
(F2.4615384615384617
L4219360L
Vlocale_charset
p613
tp614
sL10876L
(F1.3333333333333333
L4205120L
Vbase64_encode_alloc
p615
tp616
sL14975L
(F262144.0
L4208064L
Vquotearg_buffer_restyled
p617
tp618
sL12928L
(F4.0
L4207072L
Vbase64_decode_alloc_ctx
p619
tp620
sL23172L
(F2.0
L4216704L
Vrpl_fclose
p621
tp622
sL17029L
(F2.6666666666666665
L4210992L
Vquotearg_n_options
p623
tp624
sL14986L
(F262144.0
L4208064L
Vquotearg_buffer_restyled
p625
tp626
sL23181L
(F2.6666666666666665
L4216704L
Vrpl_fclose
p627
tp628
sL10896L
(F2.0
L4205120L
Vbase64_encode_alloc
p629
tp630
sL21136L
(F8.0
L4215264L
Vxstrtoumax
p631
tp632
sL14997L
(F1048576.0
L4208064L
Vquotearg_buffer_restyled
p633
tp634
sL23193L
(F8.0
L4216704L
Vrpl_fclose
p635
tp636
sL12954L
(F16.0
L4207072L
Vbase64_decode_alloc_ctx
p637
tp638
sL15007L
(F524288.0
L4208064L
Vquotearg_buffer_restyled
p639
tp640
sL6816L
(F1.0
L4201120L
Vderegister_tm_clones
p641
tp642
sL17056L
(F8.0
L4210992L
Vquotearg_n_options
p643
tp644
sL25250L
(F4.923076923076923
L4219360L
Vlocale_charset
p645
tp646
sL15016L
(F74898.28571428571
L4208064L
Vquotearg_buffer_restyled
p647
tp648
sL10922L
(F4.0
L4205120L
Vbase64_encode_alloc
p649
tp650
sL21164L
(F16.0
L4215264L
Vxstrtoumax
p651
tp652
sL23217L
(F8.0
L4216704L
Vrpl_fclose
p653
tp654
sL19122L
(F22.0
L4213200L
Vversion_etc_arn
p655
tp656
sL21172L
(F32.0
L4215264L
Vxstrtoumax
p657
tp658
sL25268L
(F2.0
L4219360L
Vlocale_charset
p659
tp660
sL6837L
(F2.0
L4201120L
Vderegister_tm_clones
p661
tp662
sL21174L
(F21.333333333333332
L4215264L
Vxstrtoumax
p663
tp664
sL21179L
(F64.0
L4215264L
Vxstrtoumax
p665
tp666
sL6847L
(F4.0
L4201120L
Vderegister_tm_clones
p667
tp668
sL12992L
(F1.0
L4207296L
Vclose_stdout
p669
tp670
sL15040L
(F32768.0
L4208064L
Vquotearg_buffer_restyled
p671
tp672
sL23232L
(F4.0
L4216704L
Vrpl_fclose
p673
tp674
sL25286L
(F4.0
L4219360L
Vlocale_charset
p675
tp676
sL21192L
(F31.995193029893343
L4215264L
Vxstrtoumax
p677
tp678
sL25291L
(F2.6666666666666665
L4219360L
Vlocale_charset
p679
tp680
sL15056L
(F32768.0
L4208064L
Vquotearg_buffer_restyled
p681
tp682
sL6864L
(F1.3333333333333333
L4201120L
Vderegister_tm_clones
p683
tp684
sL10960L
(F4.0
L4205120L
Vbase64_encode_alloc
p685
tp686
sL21200L
(F32.0
L4215264L
Vxstrtoumax
p687
tp688
sL17109L
(F2.0
L4210992L
Vquotearg_n_options
p689
tp690
sL13014L
(F2.0
L4207296L
Vclose_stdout
p691
tp692
sL21210L
(F64.0
L4215264L
Vxstrtoumax
p693
tp694
sL21212L
(F128.0
L4215264L
Vxstrtoumax
p695
tp696
sL23260L
(F4.0
L4216704L
Vrpl_fclose
p697
tp698
sL25308L
(F2.2857142857142856
L4219360L
Vlocale_charset
p699
tp700
sL13023L
(F4.0
L4207296L
Vclose_stdout
p701
tp702
sL23263L
(F1.3333333333333333
L4216704L
Vrpl_fclose
p703
tp704
sL6880L
(F1.0
L4201184L
Vregister_tm_clones
p705
tp706
sL15072L
(F32768.0
L4208064L
Vquotearg_buffer_restyled
p707
tp708
sL25319L
(F5.333333333333333
L4219360L
Vlocale_charset
p709
tp710
sL13033L
(F1.6
L4207296L
Vclose_stdout
p711
tp712
sL15088L
(F32768.0
L4208064L
Vquotearg_buffer_restyled
p713
tp714
sL23280L
(F16.0
L4216704L
Vrpl_fclose
p715
tp716
sL15095L
(F65536.0
L4208064L
Vquotearg_buffer_restyled
p717
tp718
sL19192L
(F44.0
L4213200L
Vversion_etc_arn
p719
tp720
sL13049L
(F3.2
L4207296L
Vclose_stdout
p721
tp722
sL15103L
(F43690.666666666664
L4208064L
Vquotearg_buffer_restyled
p723
tp724
sL21247L
(F85.33333333333333
L4215264L
Vxstrtoumax
p725
tp726
sL13056L
(F2.6666666666666665
L4207296L
Vclose_stdout
p727
tp728
sL23296L
(F1.0
L4217600L
Vrpl_fflush
p729
tp730
sL25344L
(F10.666666666666666
L4219360L
Vlocale_charset
p731
tp732
sL6915L
(F2.0
L4201184L
Vregister_tm_clones
p733
tp734
sL23308L
(F2.0
L4217600L
Vrpl_fflush
p735
tp736
sL6925L
(F4.0
L4201184L
Vregister_tm_clones
p737
tp738
sL11024L
(F1.0
L4205328L
Vbase64_decode_ctx
p739
tp740
sL15120L
(F32768.0
L4208064L
Vquotearg_buffer_restyled
p741
tp742
sL23317L
(F4.0
L4217600L
Vrpl_fflush
p743
tp744
sL25366L
(F8.0
L4219360L
Vlocale_charset
p745
tp746
sL6936L
(F1.3333333333333333
L4201184L
Vregister_tm_clones
p747
tp748
sL15131L
(F65536.0
L4208064L
Vquotearg_buffer_restyled
p749
tp750
sL13088L
(F5.333333333333333
L4207296L
Vclose_stdout
p751
tp752
sL6944L
(F1.0
L4201248L
V__do_global_dtors_aux
p753
tp754
sL23329L
(F8.0
L4217600L
Vrpl_fflush
p755
tp756
sL15142L
(F131072.0
L4208064L
Vquotearg_buffer_restyled
p757
tp758
sL21287L
(F512.0
L4215264L
Vxstrtoumax
p759
tp760
sL6953L
(F2.0
L4201248L
V__do_global_dtors_aux
p761
tp762
sL25386L
(F16.0
L4219360L
Vlocale_charset
p763
tp764
sL15149L
(F262144.0
L4208064L
Vquotearg_buffer_restyled
p765
tp766
sL25391L
(F4.0
L4219360L
Vlocale_charset
p767
tp768
sL23344L
(F1.3333333333333333
L4217600L
Vrpl_fflush
p769
tp770
sL21300L
(F1024.0
L4215264L
Vxstrtoumax
p771
tp772
sL15158L
(F131072.0
L4208064L
Vquotearg_buffer_restyled
p773
tp774
sL19256L
(F3.384615384615385
L4213200L
Vversion_etc_arn
p775
tp776
sL6970L
(F1.0
L4201248L
V__do_global_dtors_aux
p777
tp778
sL21308L
(F2048.0
L4215264L
Vxstrtoumax
p779
tp780
sL6976L
(F1.0
L4201280L
Vframe_dummy
p781
tp782
sL25408L
(F8.0
L4219360L
Vlocale_charset
p783
tp784
sL15169L
(F262144.0
L4208064L
Vquotearg_buffer_restyled
p785
tp786
sL13123L
(F1.4545454545454546
L4207296L
Vclose_stdout
p787
tp788
sL21316L
(F4096.0
L4215264L
Vxstrtoumax
p789
tp790
sL6987L
(F1.3333333333333333
L4201280L
Vframe_dummy
p791
tp792
sL15179L
(F131072.0
L4208064L
Vquotearg_buffer_restyled
p793
tp794
sL21325L
(F8192.0
L4215264L
Vxstrtoumax
p795
tp796
sL13134L
(F5.333333333333333
L4207296L
Vclose_stdout
p797
tp798
sL6992L
(F2.0
L4201280L
Vframe_dummy
p799
tp800
sL19280L
(F22.0
L4213200L
Vversion_etc_arn
p801
tp802
sL21329L
(F8192.0
L4215264L
Vxstrtoumax
p803
tp804
sL25425L
(F4.571428571428571
L4219360L
Vlocale_charset
p805
tp806
sL23378L
(F2.6666666666666665
L4217600L
Vrpl_fflush
p807
tp808
sL15190L
(F262144.0
L4208064L
Vquotearg_buffer_restyled
p809
tp810
sL19288L
(F44.0
L4213200L
Vversion_etc_arn
p811
tp812
sL21336L
(F16.0
L4215264L
Vxstrtoumax
p813
tp814
sL7002L
(F4.0
L4201280L
Vframe_dummy
p815
tp816
sL11098L
(F2.0
L4205328L
Vbase64_decode_ctx
p817
tp818
sL15200L
(F131072.0
L4208064L
Vquotearg_buffer_restyled
p819
tp820
sL21345L
(F32.0
L4215264L
Vxstrtoumax
p821
tp822
sL23398L
(F1.3333333333333333
L4217600L
Vrpl_fflush
p823
tp824
sL21358L
(F64.0
L4215264L
Vxstrtoumax
p825
tp826
sL7024L
(F1.0
L4201328L
Vdo_encode
p827
tp828
sL11120L
(F0.988215780148528
L4205328L
Vbase64_decode_ctx
p829
tp830
sL15216L
(F1927.5294117647059
L4208064L
Vquotearg_buffer_restyled
p831
tp832
sL15228L
(F3855.0588235294117
L4208064L
Vquotearg_buffer_restyled
p833
tp834
sL13184L
(F1.0
L4207488L
Vfadvise
p835
tp836
sL11138L
(F4.0
L4205328L
Vbase64_decode_ctx
p837
tp838
sL13189L
(F2.0
L4207488L
Vfadvise
p839
tp840
sL23436L
(F2.6666666666666665
L4217600L
Vrpl_fflush
p841
tp842
sL25485L
(F9.142857142857142
L4219360L
Vlocale_charset
p843
tp844
sL11152L
(F8.0
L4205328L
Vbase64_decode_ctx
p845
tp846
sL19344L
(F44.0
L4213200L
Vversion_etc_arn
p847
tp848
sL21394L
(F128.0
L4215264L
Vxstrtoumax
p849
tp850
sL11166L
(F2.6666666666666665
L4205328L
Vbase64_decode_ctx
p851
tp852
sL17312L
(F1.0
L4211616L
Vset_custom_quoting
p853
tp854
sL13216L
(F2.0
L4207488L
Vfadvise
p855
tp856
sL21408L
(F232.52401746724888
L4215264L
Vxstrtoumax
p857
tp858
sL23456L
(F1.3333333333333333
L4217600L
Vrpl_fflush
p859
tp860
sL11171L
(F8.0
L4205328L
Vbase64_decode_ctx
p861
tp862
sL25509L
(F18.285714285714285
L4219360L
Vlocale_charset
p863
tp864
sL7078L
(F0.9846153846153847
L4201328L
Vdo_encode
p865
tp866
sL21421L
(F106496.0
L4215264L
Vxstrtoumax
p867
tp868
sL15279L
(F3383.3985303570753
L4208064L
Vquotearg_buffer_restyled
p869
tp870
sL5040L
(F1.0
L4199344L
V_init
p871
tp872
sL7088L
(F2.0
L4201328L
Vdo_encode
p873
tp874
sL13232L
(F1.0
L4207536L
Vset_program_name
p875
tp876
sL25520L
(F11.301989695833063
L4219360L
Vlocale_charset
p877
tp878
sL21426L
(F35498.666666666664
L4215264L
Vxstrtoumax
p879
tp880
sL13238L
(F2.0
L4207536L
Vset_program_name
p881
tp882
sL21431L
(F212992.0
L4215264L
Vxstrtoumax
p883
tp884
sL15288L
(F5436.502303727481
L4208064L
Vquotearg_buffer_restyled
p885
tp886
sL17339L
(F2.0
L4211616L
Vset_custom_quoting
p887
tp888
sL21436L
(F7745.163636363636
L4215264L
Vxstrtoumax
p889
tp890
sL7101L
(F0.7901234567901234
L4201328L
Vdo_encode
p891
tp892
sL25534L
(F26.5596757852077
L4219360L
Vlocale_charset
p893
tp894
sL17344L
(F4.0
L4211616L
Vset_custom_quoting
p895
tp896
sL5056L
(F2.0
L4199344L
V_init
p897
tp898
sL5061L
(F1.0
L4199344L
V_init
p899
tp900
sL13256L
(F4.0
L4207536L
Vset_program_name
p901
tp902
sL25545L
(F19.47433325904465
L4219360L
Vlocale_charset
p903
tp904
sL11210L
(F4.0
L4205328L
Vbase64_decode_ctx
p905
tp906
sL23498L
(F2.6666666666666665
L4217600L
Vrpl_fflush
p907
tp908
sL17357L
(F1.3333333333333333
L4211616L
Vset_custom_quoting
p909
tp910
sL15312L
(F15420.235294117647
L4208064L
Vquotearg_buffer_restyled
p911
tp912
sL19408L
(F44.0
L4213200L
Vversion_etc_arn
p913
tp914
sL25553L
(F73.14285714285714
L4219360L
Vlocale_charset
p915
tp916
sL21460L
(F106496.0
L4215264L
Vxstrtoumax
p917
tp918
sL25558L
(F146.28571428571428
L4219360L
Vlocale_charset
p919
tp920
sL13272L
(F8.0
L4207536L
Vset_program_name
p921
tp922
sL15321L
(F30840.470588235294
L4208064L
Vquotearg_buffer_restyled
p923
tp924
sL21469L
(F106496.0
L4215264L
Vxstrtoumax
p925
tp926
sL15326L
(F61680.94117647059
L4208064L
Vquotearg_buffer_restyled
p927
tp928
sL23518L
(F1.3333333333333333
L4217600L
Vrpl_fflush
p929
tp930
sL25567L
(F292.57142857142856
L4219360L
Vlocale_charset
p931
tp932
sL7138L
(F2.0
L4201328L
Vdo_encode
p933
tp934
sL15330L
(F30840.470588235294
L4208064L
Vquotearg_buffer_restyled
p935
tp936
sL9192L
(F4.0
L4203024L
Vusage
p937
tp938
sL13290L
(F16.0
L4207536L
Vset_program_name
p939
tp940
sL7147L
(F3.3684210526315788
L4201328L
Vdo_encode
p941
tp942
sL15339L
(F61680.94117647059
L4208064L
Vquotearg_buffer_restyled
p943
tp944
sL11246L
(F8.0
L4205328L
Vbase64_decode_ctx
p945
tp946
sL21489L
(F35498.666666666664
L4215264L
Vxstrtoumax
p947
tp948
sL7154L
(F8.0
L4201328L
Vdo_encode
p949
tp950
sL9204L
(F1.6
L4203024L
Vusage
p951
tp952
sL7159L
(F16.0
L4201328L
Vdo_encode
p953
tp954
sL15352L
(F30840.470588235294
L4208064L
Vquotearg_buffer_restyled
p955
tp956
sL21498L
(F212992.0
L4215264L
Vxstrtoumax
p957
tp958
sL9216L
(F2.2857142857142856
L4203024L
Vusage
p959
tp960
sL15361L
(F61680.94117647059
L4208064L
Vquotearg_buffer_restyled
p961
tp962
sL11268L
(F4.0
L4205328L
Vbase64_decode_ctx
p963
tp964
sL7173L
(F32.0
L4201328L
Vdo_encode
p965
tp966
sL21511L
(F141994.66666666666
L4215264L
Vxstrtoumax
p967
tp968
sL13320L
(F32.0
L4207536L
Vset_program_name
p969
tp970
sL23560L
(F2.6666666666666665
L4217600L
Vrpl_fflush
p971
tp972
sL25609L
(F585.1428571428571
L4219360L
Vlocale_charset
p973
tp974
sL25614L
(F390.0952380952381
L4219360L
Vlocale_charset
p975
tp976
sL21519L
(F106496.0
L4215264L
Vxstrtoumax
p977
tp978
sL15377L
(F30840.470588235294
L4208064L
Vquotearg_buffer_restyled
p979
tp980
sL7186L
(F3.657142857142857
L4201328L
Vdo_encode
p981
tp982
sL13331L
(F2.0
L4207536L
Vset_program_name
p983
tp984
sL7190L
(F9.142857142857142
L4201328L
Vdo_encode
p985
tp986
sL19480L
(F44.0
L4213200L
Vversion_etc_arn
p987
tp988
sL9241L
(F8.0
L4203024L
Vusage
p989
tp990
sL23580L
(F1.3333333333333333
L4217600L
Vrpl_fflush
p991
tp992
sL15389L
(F10280.156862745098
L4208064L
Vquotearg_buffer_restyled
p993
tp994
sL13347L
(F2.0
L4207536L
Vset_program_name
p995
tp996
sL21539L
(F35498.666666666664
L4215264L
Vxstrtoumax
p997
tp998
sL25637L
(F1170.2857142857142
L4219360L
Vlocale_charset
p999
tp1000
sL21544L
(F23665.777777777777
L4215264L
Vxstrtoumax
p1001
tp1002
sL15402L
(F20560.313725490196
L4208064L
Vquotearg_buffer_restyled
p1003
tp1004
sL11310L
(F8.0
L4205328L
Vbase64_decode_ctx
p1005
tp1006
sL15407L
(F41120.62745098039
L4208064L
Vquotearg_buffer_restyled
p1007
tp1008
sL15411L
(F20560.313725490196
L4208064L
Vquotearg_buffer_restyled
p1009
tp1010
sL21558L
(F106496.0
L4215264L
Vxstrtoumax
p1011
tp1012
sL15420L
(F4299.610875745805
L4208064L
Vquotearg_buffer_restyled
p1013
tp1014
sL19516L
(F22.0
L4213200L
Vversion_etc_arn
p1015
tp1016
sL11326L
(F4.0
L4205328L
Vbase64_decode_ctx
p1017
tp1018
sL7232L
(F4.571428571428571
L4201328L
Vdo_encode
p1019
tp1020
sL15425L
(F15420.235294117647
L4208064L
Vquotearg_buffer_restyled
p1021
tp1022
sL13379L
(F1.0
L4207696L
Vquoting_options_from_style
p1023
tp1024
sL15430L
(F30840.470588235294
L4208064L
Vquotearg_buffer_restyled
p1025
tp1026
sL23622L
(F2.6666666666666665
L4217600L
Vrpl_fflush
p1027
tp1028
sL9288L
(F16.0
L4203024L
Vusage
p1029
tp1030
sL21578L
(F35498.666666666664
L4215264L
Vxstrtoumax
p1031
tp1032
sL15435L
(F61680.94117647059
L4208064L
Vquotearg_buffer_restyled
p1033
tp1034
sL15439L
(F30840.470588235294
L4208064L
Vquotearg_buffer_restyled
p1035
tp1036
sL25679L
(F780.1904761904761
L4219360L
Vlocale_charset
p1037
tp1038
sL13392L
(F1.0
L4207696L
Vquoting_options_from_style
p1039
tp1040
sL21586L
(F32768.0
L4215264L
Vxstrtoumax
p1041
tp1042
sL7255L
(F9.142857142857142
L4201328L
Vdo_encode
p1043
tp1044
sL23642L
(F1.3333333333333333
L4217600L
Vrpl_fflush
p1045
tp1046
sL21595L
(F212992.0
L4215264L
Vxstrtoumax
p1047
tp1048
sL11359L
(F8.0
L4205328L
Vbase64_decode_ctx
p1049
tp1050
sL15456L
(F16.0
L4208064L
Vquotearg_buffer_restyled
p1051
tp1052
sL17504L
(F1.0
L4211808L
Vquotearg_alloc_mem
p1053
tp1054
sL9314L
(F6.4
L4203024L
Vusage
p1055
tp1056
sL21602L
(F106496.0
L4215264L
Vxstrtoumax
p1057
tp1058
sL15464L
(F32.0
L4208064L
Vquotearg_buffer_restyled
p1059
tp1060
sL25704L
(F2340.5714285714284
L4219360L
Vlocale_charset
p1061
tp1062
sL21611L
(F425984.0
L4215264L
Vxstrtoumax
p1063
tp1064
sL15472L
(F64.0
L4208064L
Vquotearg_buffer_restyled
p1065
tp1066
sL7280L
(F2.0
L4201328L
Vdo_encode
p1067
tp1068
sL19568L
(F44.0
L4213200L
Vversion_etc_arn
p1069
tp1070
sL21616L
(F106496.0
L4215264L
Vxstrtoumax
p1071
tp1072
sL13431L
(F2.0
L4207696L
Vquoting_options_from_style
p1073
tp1074
sL15480L
(F32.0
L4208064L
Vquotearg_buffer_restyled
p1075
tp1076
sL11385L
(F4.0
L4205328L
Vbase64_decode_ctx
p1077
tp1078
sL21636L
(F35498.666666666664
L4215264L
Vxstrtoumax
p1079
tp1080
sL23684L
(F2.6666666666666665
L4217600L
Vrpl_fflush
p1081
tp1082
sL11398L
(F8.0
L4205328L
Vbase64_decode_ctx
p1083
tp1084
sL11403L
(F2.6666666666666665
L4205328L
Vbase64_decode_ctx
p1085
tp1086
sL21646L
(F212992.0
L4215264L
Vxstrtoumax
p1087
tp1088
sL21653L
(F106496.0
L4215264L
Vxstrtoumax
p1089
tp1090
sL23704L
(F1.3333333333333333
L4217600L
Vrpl_fflush
p1091
tp1092
sL11419L
(F5.333333333333333
L4205328L
Vbase64_decode_ctx
p1093
tp1094
sL9375L
(F4.571428571428571
L4203024L
Vusage
p1095
tp1096
sL15520L
(F16.0
L4208064L
Vquotearg_buffer_restyled
p1097
tp1098
sL19616L
(F44.0
L4213200L
Vversion_etc_arn
p1099
tp1100
sL25761L
(F4681.142857142857
L4219360L
Vlocale_charset
p1101
tp1102
sL21666L
(F30427.428571428565
L4215264L
Vxstrtoumax
p1103
tp1104
sL11428L
(F10.666666666666666
L4205328L
Vbase64_decode_ctx
p1105
tp1106
sL21671L
(F212992.0
L4215264L
Vxstrtoumax
p1107
tp1108
sL15528L
(F32.0
L4208064L
Vquotearg_buffer_restyled
p1109
tp1110
sL7339L
(F8.0
L4201328L
Vdo_encode
p1111
tp1112
sL15536L
(F64.0
L4208064L
Vquotearg_buffer_restyled
p1113
tp1114
sL11443L
(F21.333333333333332
L4205328L
Vbase64_decode_ctx
p1115
tp1116
sL21686L
(F53248.0
L4215264L
Vxstrtoumax
p1117
tp1118
sL15544L
(F32.0
L4208064L
Vquotearg_buffer_restyled
p1119
tp1120
sL25786L
(F2340.5714285714284
L4219360L
Vlocale_charset
p1121
tp1122
sL21691L
(F17749.333333333332
L4215264L
Vxstrtoumax
p1123
tp1124
sL23746L
(F2.6666666666666665
L4217600L
Vrpl_fflush
p1125
tp1126
sL25795L
(F9362.285714285714
L4219360L
Vlocale_charset
p1127
tp1128
sL9418L
(F8.0
L4203024L
Vusage
p1129
tp1130
sL13514L
(F4.0
L4207696L
Vquoting_options_from_style
p1131
tp1132
sL21710L
(F106496.0
L4215264L
Vxstrtoumax
p1133
tp1134
sL13519L
(F2.0
L4207696L
Vquoting_options_from_style
p1135
tp1136
sL7376L
(F4.923076923076923
L4201328L
Vdo_encode
p1137
tp1138
sL11472L
(F21.333333333333332
L4205328L
Vbase64_decode_ctx
p1139
tp1140
sL13524L
(F4.0
L4207696L
Vquoting_options_from_style
p1141
tp1142
sL23766L
(F1.3333333333333333
L4217600L
Vrpl_fflush
p1143
tp1144
sL13529L
(F1.0
L4207840L
Vgettext_quote
p1145
tp1146
sL19673L
(F22.0
L4213200L
Vversion_etc_arn
p1147
tp1148
sL21721L
(F106496.0
L4215264L
Vxstrtoumax
p1149
tp1150
sL7386L
(F32.0
L4201328L
Vdo_encode
p1151
tp1152
sL13536L
(F1.0
L4207840L
Vgettext_quote
p1153
tp1154
sL15584L
(F16.0
L4208064L
Vquotearg_buffer_restyled
p1155
tp1156
sL7399L
(F64.0
L4201328L
Vdo_encode
p1157
tp1158
sL21741L
(F35498.666666666664
L4215264L
Vxstrtoumax
p1159
tp1160
sL7408L
(F8.0
L4201328L
Vdo_encode
p1161
tp1162
sL21751L
(F212992.0
L4215264L
Vxstrtoumax
p1163
tp1164
sL7416L
(F16.0
L4201328L
Vdo_encode
p1165
tp1166
sL9465L
(F16.0
L4203024L
Vusage
p1167
tp1168
sL13563L
(F2.0
L4207840L
Vgettext_quote
p1169
tp1170
sL11516L
(F85.33333333333333
L4205328L
Vbase64_decode_ctx
p1171
tp1172
sL21758L
(F106496.0
L4215264L
Vxstrtoumax
p1173
tp1174
sL13568L
(F1.0178926441351888
L4207840L
Vgettext_quote
p1175
tp1176
sL7424L
(F32.0
L4201328L
Vdo_encode
p1177
tp1178
sL23808L
(F2.6666666666666665
L4217600L
Vrpl_fflush
p1179
tp1180
sL15624L
(F16.0
L4208064L
Vquotearg_buffer_restyled
p1181
tp1182
sL21771L
(F30427.428571428565
L4215264L
Vxstrtoumax
p1183
tp1184
sL25868L
(F36.50013923698134
L4219360L
Vlocale_charset
p1185
tp1186
sL7438L
(F64.0
L4201328L
Vdo_encode
p1187
tp1188
sL9487L
(F10.666666666666666
L4203024L
Vusage
p1189
tp1190
sL19728L
(F44.0
L4213200L
Vversion_etc_arn
p1191
tp1192
sL21776L
(F212992.0
L4215264L
Vxstrtoumax
p1193
tp1194
sL23828L
(F1.3333333333333333
L4217600L
Vrpl_fflush
p1195
tp1196
sL11544L
(F17.066666666666666
L4205328L
Vbase64_decode_ctx
p1197
tp1198
sL7449L
(F42.666666666666664
L4201328L
Vdo_encode
p1199
tp1200
sL7452L
(F16.0
L4201328L
Vdo_encode
p1201
tp1202
sL21791L
(F106496.0
L4215264L
Vxstrtoumax
p1203
tp1204
sL25887L
(F59.91862857142857
L4219360L
Vlocale_charset
p1205
tp1206
sL13600L
(F2.0
L4207840L
Vgettext_quote
p1207
tp1208
sL7457L
(F12.8
L4201328L
Vdo_encode
p1209
tp1210
sL17700L
(F2.0
L4211808L
Vquotearg_alloc_mem
p1211
tp1212
sL13612L
(F4.0
L4207840L
Vgettext_quote
p1213
tp1214
sL17709L
(F1.0
L4211808L
Vquotearg_alloc_mem
p1215
tp1216
sL25904L
(F129.8063877197326
L4219360L
Vlocale_charset
p1217
tp1218
sL21811L
(F35498.666666666664
L4215264L
Vxstrtoumax
p1219
tp1220
sL25909L
(F5.568645778013808
L4219360L
Vlocale_charset
p1221
tp1222
sL13624L
(F8.0
L4207840L
Vgettext_quote
p1223
tp1224
sL15672L
(F16.0
L4208064L
Vquotearg_buffer_restyled
p1225
tp1226
sL9529L
(F7.111111111111111
L4203024L
Vusage
p1227
tp1228
sL7482L
(F32.0
L4201328L
Vdo_encode
p1229
tp1230
sL11578L
(F85.33333333333333
L4205328L
Vbase64_decode_ctx
p1231
tp1232
sL21821L
(F212992.0
L4215264L
Vxstrtoumax
p1233
tp1234
sL13630L
(F16.0
L4207840L
Vgettext_quote
p1235
tp1236
sL23870L
(F2.6666666666666665
L4217600L
Vrpl_fflush
p1237
tp1238
sL25920L
(F585.1428571428571
L4219360L
Vlocale_charset
p1239
tp1240
sL13636L
(F32.0
L4207840L
Vgettext_quote
p1241
tp1242
sL21828L
(F106496.0
L4215264L
Vxstrtoumax
p1243
tp1244
sL9545L
(F32.0
L4203024L
Vusage
p1245
tp1246
sL13642L
(F64.0
L4207840L
Vgettext_quote
p1247
tp1248
sL25931L
(F292.57142857142856
L4219360L
Vlocale_charset
p1249
tp1250
sL11598L
(F42.666666666666664
L4205328L
Vbase64_decode_ctx
p1251
tp1252
sL9550L
(F16.0
L4203024L
Vusage
p1253
tp1254
sL25936L
(F585.1428571428571
L4219360L
Vlocale_charset
p1255
tp1256
sL21841L
(F30427.428571428565
L4215264L
Vxstrtoumax
p1257
tp1258
sL23890L
(F1.3333333333333333
L4217600L
Vrpl_fflush
p1259
tp1260
sL25941L
(F234.05714285714285
L4219360L
Vlocale_charset
p1261
tp1262
sL21846L
(F212992.0
L4215264L
Vxstrtoumax
p1263
tp1264
sL19800L
(F2.0
L4213200L
Vversion_etc_arn
p1265
tp1266
sL25951L
(F585.1428571428571
L4219360L
Vlocale_charset
p1267
tp1268
sL17760L
(F1.0
L4212064L
Vquotearg_free
p1269
tp1270
sL21861L
(F106496.0
L4215264L
Vxstrtoumax
p1271
tp1272
sL13672L
(F4.0
L4207840L
Vgettext_quote
p1273
tp1274
sL15720L
(F16.0
L4208064L
Vquotearg_buffer_restyled
p1275
tp1276
sL25961L
(F4.571428571428571
L4219360L
Vlocale_charset
p1277
tp1278
sL15722L
(F32.0
L4208064L
Vquotearg_buffer_restyled
p1279
tp1280
sL21866L
(F35498.666666666664
L4215264L
Vxstrtoumax
p1281
tp1282
sL25967L
(F4.4159121345607995
L4219360L
Vlocale_charset
p1283
tp1284
sL23920L
(F8.0
L4217600L
Vrpl_fflush
p1285
tp1286
sL7539L
(F32.0
L4201328L
Vdo_encode
p1287
tp1288
sL13684L
(F8.0
L4207840L
Vgettext_quote
p1289
tp1290
sL17782L
(F2.0
L4212064L
Vquotearg_free
p1291
tp1292
sL11639L
(F85.33333333333333
L4205328L
Vbase64_decode_ctx
p1293
tp1294
sL19832L
(F3.666666666666667
L4213200L
Vversion_etc_arn
p1295
tp1296
sL13690L
(F16.0
L4207840L
Vgettext_quote
p1297
tp1298
sL25979L
(F390.0952380952381
L4219360L
Vlocale_charset
p1299
tp1300
sL21885L
(F212992.0
L4215264L
Vxstrtoumax
p1301
tp1302
sL9600L
(F1.0
L4203904L
Vdecode_4
p1303
tp1304
sL7552L
(F64.0
L4201328L
Vdo_encode
p1305
tp1306
sL13696L
(F32.0
L4207840L
Vgettext_quote
p1307
tp1308
sL25988L
(F780.1904761904761
L4219360L
Vlocale_charset
p1309
tp1310
sL25990L
(F18.285714285714285
L4219360L
Vlocale_charset
p1311
tp1312
sL21896L
(F106496.0
L4215264L
Vxstrtoumax
p1313
tp1314
sL9610L
(F2.0
L4203904L
Vdecode_4
p1315
tp1316
sL13706L
(F64.0
L4207840L
Vgettext_quote
p1317
tp1318
sL11659L
(F42.666666666666664
L4205328L
Vbase64_decode_ctx
p1319
tp1320
sL25998L
(F5.821864416190106
L4219360L
Vlocale_charset
p1321
tp1322
sL17808L
(F1.3333333333333333
L4212064L
Vquotearg_free
p1323
tp1324
sL23952L
(F1.0
L4218256L
Vrpl_fseeko
p1325
tp1326
sL13716L
(F128.0
L4207840L
Vgettext_quote
p1327
tp1328
sL15766L
(F32.0
L4208064L
Vquotearg_buffer_restyled
p1329
tp1330
sL26006L
(F4681.142857142857
L4219360L
Vlocale_charset
p1331
tp1332
sL23962L
(F1.1428571428571428
L4218256L
Vrpl_fseeko
p1333
tp1334
sL21916L
(F35498.666666666664
L4215264L
Vxstrtoumax
p1335
tp1336
sL13726L
(F256.0
L4207840L
Vgettext_quote
p1337
tp1338
sL23968L
(F2.0
L4218256L
Vrpl_fseeko
p1339
tp1340
sL17825L
(F1.3333333333333333
L4212064L
Vquotearg_free
p1341
tp1342
sL21926L
(F212992.0
L4215264L
Vxstrtoumax
p1343
tp1344
sL13736L
(F512.0
L4207840L
Vgettext_quote
p1345
tp1346
sL23978L
(F4.0
L4218256L
Vrpl_fseeko
p1347
tp1348
sL9644L
(F4.0
L4203904L
Vdecode_4
p1349
tp1350
sL21933L
(F106496.0
L4215264L
Vxstrtoumax
p1351
tp1352
sL17839L
(F2.6666666666666665
L4212064L
Vquotearg_free
p1353
tp1354
sL23985L
(F8.0
L4218256L
Vrpl_fseeko
p1355
tp1356
sL11701L
(F85.33333333333333
L4205328L
Vbase64_decode_ctx
p1357
tp1358
sL21946L
(F30427.428571428565
L4215264L
Vxstrtoumax
p1359
tp1360
sL26043L
(F9362.285714285714
L4219360L
Vlocale_charset
p1361
tp1362
sL21951L
(F212992.0
L4215264L
Vxstrtoumax
p1363
tp1364
sL13760L
(F1.0
L4208064L
Vquotearg_buffer_restyled
p1365
tp1366
sL19904L
(F1.0
L4214208L
Vversion_etc_ar
p1367
tp1368
sL15810L
(F18.285714285714285
L4208064L
Vquotearg_buffer_restyled
p1369
tp1370
sL7620L
(F64.0
L4201328L
Vdo_encode
p1371
tp1372
sL15816L
(F51.2
L4208064L
Vquotearg_buffer_restyled
p1373
tp1374
sL11721L
(F42.666666666666664
L4205328L
Vbase64_decode_ctx
p1375
tp1376
sL19913L
(F2.0
L4214208L
Vversion_etc_ar
p1377
tp1378
sL17866L
(F1.3333333333333333
L4212064L
Vquotearg_free
p1379
tp1380
sL21966L
(F106496.0
L4215264L
Vxstrtoumax
p1381
tp1382
sL9680L
(F2.0
L4203904L
Vdecode_4
p1383
tp1384
sL19920L
(F1.3333333333333333
L4214208L
Vversion_etc_ar
p1385
tp1386
sL17875L
(F2.6666666666666665
L4212064L
Vquotearg_free
p1387
tp1388
sL15828L
(F102.4
L4208064L
Vquotearg_buffer_restyled
p1389
tp1390
sL24022L
(F16.0
L4218256L
Vrpl_fseeko
p1391
tp1392
sL26070L
(F4.923076923076923
L4219360L
Vlocale_charset
p1393
tp1394
sL19931L
(F1.3333333333333333
L4214208L
Vversion_etc_ar
p1395
tp1396
sL26075L
(F16.0
L4219360L
Vlocale_charset
p1397
tp1398
sL19936L
(F1.0
L4214240L
Vversion_etc_va
p1399
tp1400
sL15840L
(F68.26666666666667
L4208064L
Vquotearg_buffer_restyled
p1401
tp1402
sL11744L
(F85.33333333333333
L4205328L
Vbase64_decode_ctx
p1403
tp1404
sL21986L
(F35498.666666666664
L4215264L
Vxstrtoumax
p1405
tp1406
sL24034L
(F8.0
L4218256L
Vrpl_fseeko
p1407
tp1408
sL7652L
(F128.0
L4201328L
Vdo_encode
p1409
tp1410
sL15845L
(F204.8
L4208064L
Vquotearg_buffer_restyled
p1411
tp1412
sL17894L
(F1.3333333333333333
L4212064L
Vquotearg_free
p1413
tp1414
sL11752L
(F170.66666666666666
L4205328L
Vbase64_decode_ctx
p1415
tp1416
sL15848L
(F102.4
L4208064L
Vquotearg_buffer_restyled
p1417
tp1418
sL21996L
(F212992.0
L4215264L
Vxstrtoumax
p1419
tp1420
sL9712L
(F4.0
L4203904L
Vdecode_4
p1421
tp1422
sL24048L
(F1.0
L4218352L
Vclose_stream
p1423
tp1424
sL26096L
(F1.0
L4220400L
V__libc_csu_init
p1425
tp1426
sL22003L
(F106496.0
L4215264L
Vxstrtoumax
p1427
tp1428
sL15860L
(F29.257142857142856
L4208064L
Vquotearg_buffer_restyled
p1429
tp1430
sL11765L
(F341.3333333333333
L4205328L
Vbase64_decode_ctx
p1431
tp1432
sL11768L
(F94.16091954022988
L4205328L
Vbase64_decode_ctx
p1433
tp1434
sL19968L
(F2.0
L4214240L
Vversion_etc_va
p1435
tp1436
sL22016L
(F30427.428571428565
L4215264L
Vxstrtoumax
p1437
tp1438
sL11781L
(F682.6666666666666
L4205328L
Vbase64_decode_ctx
p1439
tp1440
sL22021L
(F212992.0
L4215264L
Vxstrtoumax
p1441
tp1442
sL22036L
(F2048.0
L4215264L
Vxstrtoumax
p1443
tp1444
sL11801L
(F1365.3333333333333
L4205328L
Vbase64_decode_ctx
p1445
tp1446
sL19993L
(F2.0
L4214240L
Vversion_etc_va
p1447
tp1448
sL24089L
(F2.0
L4218352L
Vclose_stream
p1449
tp1450
sL11803L
(F455.1111111111111
L4205328L
Vbase64_decode_ctx
p1451
tp1452
sL11808L
(F88.08602150537635
L4205328L
Vbase64_decode_ctx
p1453
tp1454
sL7712L
(F16.0
L4201328L
Vdo_encode
p1455
tp1456
sL20003L
(F0.8
L4214240L
Vversion_etc_va
p1457
tp1458
sL26150L
(F2.0
L4220400L
V__libc_csu_init
p1459
tp1460
sL11816L
(F63.50387596899225
L4205328L
Vbase64_decode_ctx
p1461
tp1462
sL22056L
(F273.06666666666666
L4215264L
Vxstrtoumax
p1463
tp1464
sL20011L
(F2.0
L4214240L
Vversion_etc_va
p1465
tp1466
sL24109L
(F1.0
L4218352L
Vclose_stream
p1467
tp1468
sL15920L
(F36.57142857142857
L4208064L
Vquotearg_buffer_restyled
p1469
tp1470
sL5680L
(F1.0
L4217600L
Vrpl_fflush
p1471
tp1472
sL26160L
(F1.3333333333333333
L4220400L
V__libc_csu_init
p1473
tp1474
sL11826L
(F1820.4444444444443
L4205328L
Vbase64_decode_ctx
p1475
tp1476
sL9781L
(F8.0
L4203904L
Vdecode_4
p1477
tp1478
sL22069L
(F4096.0
L4215264L
Vxstrtoumax
p1479
tp1480
sL22073L
(F4096.0
L4215264L
Vxstrtoumax
p1481
tp1482
sL9788L
(F16.0
L4203904L
Vdecode_4
p1483
tp1484
sL11838L
(F910.2222222222222
L4205328L
Vbase64_decode_ctx
p1485
tp1486
sL15936L
(F512.0
L4208064L
Vquotearg_buffer_restyled
p1487
tp1488
sL22080L
(F53248.0
L4215264L
Vxstrtoumax
p1489
tp1490
sL20035L
(F4.0
L4214240L
Vversion_etc_va
p1491
tp1492
sL13893L
(F2.0
L4208064L
Vquotearg_buffer_restyled
p1493
tp1494
sL26182L
(F1.3333333333333333
L4220400L
V__libc_csu_init
p1495
tp1496
sL20040L
(F1.3333333333333333
L4214240L
Vversion_etc_va
p1497
tp1498
sL22088L
(F53248.0
L4215264L
Vxstrtoumax
p1499
tp1500
sL13898L
(F2.0
L4208064L
Vquotearg_buffer_restyled
p1501
tp1502
sL15952L
(F3855.0588235294117
L4208064L
Vquotearg_buffer_restyled
p1503
tp1504
sL22098L
(F53248.0
L4215264L
Vxstrtoumax
p1505
tp1506
sL7763L
(F32.0
L4201328L
Vdo_encode
p1507
tp1508
sL24147L
(F2.0
L4218352L
Vclose_stream
p1509
tp1510
sL13912L
(F8.0
L4208064L
Vquotearg_buffer_restyled
p1511
tp1512
sL22106L
(F53248.0
L4215264L
Vxstrtoumax
p1513
tp1514
sL20064L
(F8.0
L4214240L
Vversion_etc_va
p1515
tp1516
sL7781L
(F64.0
L4201328L
Vdo_encode
p1517
tp1518
sL20069L
(F8.0
L4214240L
Vversion_etc_va
p1519
tp1520
sL15974L
(F3855.0588235294117
L4208064L
Vquotearg_buffer_restyled
p1521
tp1522
sL24167L
(F1.0
L4218352L
Vclose_stream
p1523
tp1524
sL20074L
(F1.0
L4214384L
Vversion_etc
p1525
tp1526
sL11886L
(F1820.4444444444443
L4205328L
Vbase64_decode_ctx
p1527
tp1528
sL18032L
(F1.0
L4212336L
Vquotearg_n_style
p1529
tp1530
sL20080L
(F1.0
L4214384L
Vversion_etc
p1531
tp1532
sL26224L
(F1.0
L4220528L
Vatexit
p1533
tp1534
sL22129L
(F53248.0
L4215264L
Vxstrtoumax
p1535
tp1536
sL11892L
(F3640.8888888888887
L4205328L
Vbase64_decode_ctx
p1537
tp1538
sL13944L
(F2.12008281573499
L4208064L
Vquotearg_buffer_restyled
p1539
tp1540
sL26236L
(F2.0
L4220528L
Vatexit
p1541
tp1542
sL11907L
(F21.147466924814456
L4205328L
Vbase64_decode_ctx
p1543
tp1544
sL20101L
(F2.0
L4214384L
Vversion_etc
p1545
tp1546
sL22152L
(F53248.0
L4215264L
Vxstrtoumax
p1547
tp1548
sL7823L
(F32.0
L4201328L
Vdo_encode
p1549
tp1550
sL26256L
(F2.0
L4220528L
Vatexit
p1551
tp1552
sL24209L
(F2.0
L4218352L
Vclose_stream
p1553
tp1554
sL7830L
(F9.142857142857142
L4201328L
Vdo_encode
p1555
tp1556
sL13975L
(F2.120014233493999
L4208064L
Vquotearg_buffer_restyled
p1557
tp1558
sL16025L
(F3747.109857896647
L4208064L
Vquotearg_buffer_restyled
p1559
tp1560
sL22175L
(F53248.0
L4215264L
Vxstrtoumax
p1561
tp1562
sL24229L
(F1.0
L4218352L
Vclose_stream
p1563
tp1564
sL13991L
(F16.0
L4208064L
Vquotearg_buffer_restyled
p1565
tp1566
sL7856L
(F1.0
L4202160L
Vlava_get
p1567
tp1568
sL14000L
(F15.995800643924703
L4208064L
Vquotearg_buffer_restyled
p1569
tp1570
sL9910L
(F8.0
L4203904L
Vdecode_4
p1571
tp1572
sL22198L
(F53248.0
L4215264L
Vxstrtoumax
p1573
tp1574
sL18103L
(F2.0
L4212336L
Vquotearg_n_style
p1575
tp1576
sL14008L
(F15.995800643924703
L4208064L
Vquotearg_buffer_restyled
p1577
tp1578
sL20156L
(F1.0
L4214384L
Vversion_etc
p1579
tp1580
sL18110L
(F2.0
L4212336L
Vquotearg_n_style
p1581
tp1582
sL9920L
(F16.0
L4203904L
Vdecode_4
p1583
tp1584
sL18115L
(F1.0
L4212432L
Vquotearg_n_style_mem
p1585
tp1586
sL7877L
(F2.0
L4202160L
Vlava_get
p1587
tp1588
sL9930L
(F32.0
L4203904L
Vdecode_4
p1589
tp1590
sL14026L
(F64.0
L4208064L
Vquotearg_buffer_restyled
p1591
tp1592
sL7883L
(F4.0
L4202160L
Vlava_get
p1593
tp1594
sL11981L
(F83.85924504158669
L4205328L
Vbase64_decode_ctx
p1595
tp1596
sL22221L
(F53248.0
L4215264L
Vxstrtoumax
p1597
tp1598
sL24271L
(F2.0
L4218352L
Vclose_stream
p1599
tp1600
sL18128L
(F1.0
L4212432L
Vquotearg_n_style_mem
p1601
tp1602
sL7888L
(F1.3333333333333333
L4202160L
Vlava_get
p1603
tp1604
sL14034L
(F128.0
L4208064L
Vquotearg_buffer_restyled
p1605
tp1606
sL16082L
(F15420.235294117647
L4208064L
Vquotearg_buffer_restyled
p1607
tp1608
sL16092L
(F30840.470588235294
L4208064L
Vquotearg_buffer_restyled
p1609
tp1610
sL12001L
(F41.929622520793345
L4205328L
Vbase64_decode_ctx
p1611
tp1612
sL14050L
(F256.0
L4208064L
Vquotearg_buffer_restyled
p1613
tp1614
sL24291L
(F1.0
L4218352L
Vclose_stream
p1615
tp1616
sL22244L
(F53248.0
L4215264L
Vxstrtoumax
p1617
tp1618
sL16102L
(F61680.94117647059
L4208064L
Vquotearg_buffer_restyled
p1619
tp1620
sL14056L
(F512.0
L4208064L
Vquotearg_buffer_restyled
p1621
tp1622
sL16109L
(F123361.88235294117
L4208064L
Vquotearg_buffer_restyled
p1623
tp1624
sL5872L
(F2.0
L4218256L
Vrpl_fseeko
p1625
tp1626
sL9971L
(F64.0
L4203904L
Vdecode_4
p1627
tp1628
sL16116L
(F246723.76470588235
L4208064L
Vquotearg_buffer_restyled
p1629
tp1630
sL9978L
(F128.0
L4203904L
Vdecode_4
p1631
tp1632
sL16122L
(F493447.5294117647
L4208064L
Vquotearg_buffer_restyled
p1633
tp1634
sL22267L
(F53248.0
L4215264L
Vxstrtoumax
p1635
tp1636
sL7936L
(F1.0
L4202240L
Vdo_decode
p1637
tp1638
sL14086L
(F128.0
L4208064L
Vquotearg_buffer_restyled
p1639
tp1640
sL16136L
(F358870.9304812834
L4208064L
Vquotearg_buffer_restyled
p1641
tp1642
sL20234L
(F2.0
L4214384L
Vversion_etc
p1643
tp1644
sL24333L
(F2.0
L4218352L
Vclose_stream
p1645
tp1646
sL14095L
(F256.0
L4208064L
Vquotearg_buffer_restyled
p1647
tp1648
sL12048L
(F83.85924504158669
L4205328L
Vbase64_decode_ctx
p1649
tp1650
sL20242L
(F2.0
L4214384L
Vversion_etc
p1651
tp1652
sL22290L
(F26624.0
L4215264L
Vxstrtoumax
p1653
tp1654
sL16150L
(F986895.0588235294
L4208064L
Vquotearg_buffer_restyled
p1655
tp1656
sL18200L
(F2.0
L4212432L
Vquotearg_n_style_mem
p1657
tp1658
sL22298L
(F819.2
L4215264L
Vxstrtoumax
p1659
tp1660
sL5920L
(F1.0
L4220528L
Vatexit
p1661
tp1662
sL18209L
(F2.0
L4212432L
Vquotearg_n_style_mem
p1663
tp1664
sL24353L
(F1.0
L4218352L
Vclose_stream
p1665
tp1666
sL12068L
(F41.929622520793345
L4205328L
Vbase64_decode_ctx
p1667
tp1668
sL22313L
(F512.0
L4215264L
Vxstrtoumax
p1669
tp1670
sL16175L
(F657930.0392156863
L4208064L
Vquotearg_buffer_restyled
p1671
tp1672
sL16184L
(F66908.13958125623
L4208064L
Vquotearg_buffer_restyled
p1673
tp1674
sL22328L
(F212992.0
L4215264L
Vxstrtoumax
p1675
tp1676
sL8000L
(F0.9990243902439024
L4202240L
Vdo_decode
p1677
tp1678
sL14144L
(F512.0
L4208064L
Vquotearg_buffer_restyled
p1679
tp1680
sL8008L
(F1.1428571428571428
L4202240L
Vdo_decode
p1681
tp1682
sL22346L
(F141994.66666666666
L4215264L
Vxstrtoumax
p1683
tp1684
sL14155L
(F1024.0
L4208064L
Vquotearg_buffer_restyled
p1685
tp1686
sL24395L
(F2.0
L4218352L
Vclose_stream
p1687
tp1688
sL18256L
(F1.0
L4212560L
Vquotearg_char_mem
p1689
tp1690
sL12112L
(F83.85924504158669
L4205328L
Vbase64_decode_ctx
p1691
tp1692
sL10065L
(F64.0
L4203904L
Vdecode_4
p1693
tp1694
sL8022L
(F2.245614035087719
L4202240L
Vdo_decode
p1695
tp1696
sL14168L
(F33.03225806451613
L4208064L
Vquotearg_buffer_restyled
p1697
tp1698
sL10075L
(F128.0
L4203904L
Vdecode_4
p1699
tp1700
sL22363L
(F2.0
L4215264L
Vxstrtoumax
p1701
tp1702
sL24415L
(F1.0
L4218352L
Vclose_stream
p1703
tp1704
sL8035L
(F4.413793103448276
L4202240L
Vdo_decode
p1705
tp1706
sL12132L
(F41.929622520793345
L4205328L
Vbase64_decode_ctx
p1707
tp1708
sL10085L
(F256.0
L4203904L
Vdecode_4
p1709
tp1710
sL14182L
(F2048.0
L4208064L
Vquotearg_buffer_restyled
p1711
tp1712
sL16231L
(F13826.90099927887
L4208064L
Vquotearg_buffer_restyled
p1713
tp1714
sL14186L
(F2048.0
L4208064L
Vquotearg_buffer_restyled
p1715
tp1716
sL8043L
(F0.8982456140350877
L4202240L
Vdo_decode
p1717
tp1718
sL22388L
(F16.0
L4215264L
Vxstrtoumax
p1719
tp1720
sL14200L
(F32768.0
L4208064L
Vquotearg_buffer_restyled
p1721
tp1722
sL22393L
(F1.0
L4216704L
Vrpl_fclose
p1723
tp1724
sL22400L
(F1.0
L4216704L
Vrpl_fclose
p1725
tp1726
sL14213L
(F65536.0
L4208064L
Vquotearg_buffer_restyled
p1727
tp1728
sL24457L
(F2.0
L4218352L
Vclose_stream
p1729
tp1730
sL12173L
(F83.85924504158669
L4205328L
Vbase64_decode_ctx
p1731
tp1732
sL14222L
(F131072.0
L4208064L
Vquotearg_buffer_restyled
p1733
tp1734
sL16273L
(F8408.051619369793
L4208064L
Vquotearg_buffer_restyled
p1735
tp1736
sL14233L
(F262144.0
L4208064L
Vquotearg_buffer_restyled
p1737
tp1738
sL16283L
(F27653.80199855774
L4208064L
Vquotearg_buffer_restyled
p1739
tp1740
sL8093L
(F2.0
L4202240L
Vdo_decode
p1741
tp1742
sL24477L
(F1.0
L4218352L
Vclose_stream
p1743
tp1744
sL20384L
(F1.0
L4214688L
Vxmalloc
p1745
tp1746
sL16288L
(F32768.0
L4208064L
Vquotearg_buffer_restyled
p1747
tp1748
sL6048L
(F1.0
L4200352L
Vmain
p1749
tp1750
sL8096L
(F1.6842105263157894
L4202240L
Vdo_decode
p1751
tp1752
sL12193L
(F41.929622520793345
L4205328L
Vbase64_decode_ctx
p1753
tp1754
sL8101L
(F3.2
L4202240L
Vdo_decode
p1755
tp1756
sL10150L
(F512.0
L4203904L
Vdecode_4
p1757
tp1758
sL14246L
(F524288.0
L4208064L
Vquotearg_buffer_restyled
p1759
tp1760
sL22441L
(F2.0
L4216704L
Vrpl_fclose
p1761
tp1762
sL8106L
(F8.0
L4202240L
Vdo_decode
p1763
tp1764
sL16299L
(F65536.0
L4208064L
Vquotearg_buffer_restyled
p1765
tp1766
sL10157L
(F1024.0
L4203904L
Vdecode_4
p1767
tp1768
sL20398L
(F2.0
L4214688L
Vxmalloc
p1769
tp1770
sL14258L
(F1048576.0
L4208064L
Vquotearg_buffer_restyled
p1771
tp1772
sL20403L
(F1.3333333333333333
L4214688L
Vxmalloc
p1773
tp1774
sL20405L
(F4.0
L4214688L
Vxmalloc
p1775
tp1776
sL16312L
(F1973790.1176470588
L4208064L
Vquotearg_buffer_restyled
p1777
tp1778
sL20410L
(F1.0
L4214720L
Vxnmalloc
p1779
tp1780
sL14268L
(F2097152.0
L4208064L
Vquotearg_buffer_restyled
p1781
tp1782
sL22461L
(F1.0
L4216704L
Vrpl_fclose
p1783
tp1784
sL20416L
(F1.0
L4214720L
Vxnmalloc
p1785
tp1786
sL24519L
(F2.0
L4218352L
Vclose_stream
p1787
tp1788
sL16328L
(F65536.0
L4208064L
Vquotearg_buffer_restyled
p1789
tp1790
sL8137L
(F16.0
L4202240L
Vdo_decode
p1791
tp1792
sL14284L
(F4194304.0
L4208064L
Vquotearg_buffer_restyled
p1793
tp1794
sL12240L
(F83.85924504158669
L4205328L
Vbase64_decode_ctx
p1795
tp1796
sL8145L
(F32.0
L4202240L
Vdo_decode
p1797
tp1798
sL20433L
(F2.0
L4214720L
Vxnmalloc
p1799
tp1800
sL14295L
(F8388608.0
L4208064L
Vquotearg_buffer_restyled
p1801
tp1802
sL20439L
(F2.0
L4214720L
Vxnmalloc
p1803
tp1804
sL16344L
(F1.7777777777777777
L4208064L
Vquotearg_buffer_restyled
p1805
tp1806
sL24539L
(F1.0
L4218352L
Vclose_stream
p1807
tp1808
sL16349L
(F7710.117647058823
L4208064L
Vquotearg_buffer_restyled
p1809
tp1810
sL14302L
(F16777216.0
L4208064L
Vquotearg_buffer_restyled
p1811
tp1812
sL20448L
(F1.0
L4214688L
Vxmalloc
p1813
tp1814
sL22499L
(F2.0
L4216704L
Vrpl_fclose
p1815
tp1816
sL12262L
(F41.929622520793345
L4205328L
Vbase64_decode_ctx
p1817
tp1818
sL14311L
(F8388608.0
L4208064L
Vquotearg_buffer_restyled
p1819
tp1820
sL20464L
(F1.0
L4214768L
Vxrealloc
p1821
tp1822
sL14322L
(F16777216.0
L4208064L
Vquotearg_buffer_restyled
p1823
tp1824
sL22519L
(F1.0
L4216704L
Vrpl_fclose
p1825
tp1826
sL20473L
(F2.0
L4214768L
Vxrealloc
p1827
tp1828
sL14332L
(F8388608.0
L4208064L
Vquotearg_buffer_restyled
p1829
tp1830
sL18429L
(F2.0
L4212560L
Vquotearg_char_mem
p1831
tp1832
sL8190L
(F64.0
L4202240L
Vdo_decode
p1833
tp1834
sL20478L
(F1.3333333333333333
L4214768L
Vxrealloc
p1835
tp1836
s.