(dp0
L8192L
(F4.0
L4202432L
Vstart_output_ppm
p1
tp2
sL11270L
(F2.0
L4205504L
Vput_gray_rows
p3
tp4
sL12304L
(F1.3333333333333333
L4206528L
Vput_pixel_rows
p5
tp6
sL11280L
(F1.0
L4205584L
Vput_demapped_gray
p7
tp8
sL8208L
(F2.0
L4202432L
Vstart_output_ppm
p9
tp10
sL7186L
(F262144.0
L4200352L
Vparse_switches
p11
tp12
sL6163L
(F1.1851851851851851
L4200352L
Vparse_switches
p13
tp14
sL9235L
(F32.0
L4203312L
Vput_LZW_pixel_rows
p15
tp16
sL14362L
(F2.0
L4208608L
Vjinit_write_bmp
p17
tp18
sL7198L
(F524288.0
L4200352L
Vparse_switches
p19
tp20
sL4129L
(F7.929203539823009
L4197920L
Vmain
p21
tp22
sL14371L
(F4.0
L4208608L
Vjinit_write_bmp
p23
tp24
sL15396L
(F240.94117647058823
L4209344L
Vread_color_map
p25
tp26
sL7207L
(F1048576.0
L4200352L
Vparse_switches
p27
tp28
sL6185L
(F8.0
L4200352L
Vparse_switches
p29
tp30
sL13355L
(F8.0
L4207376L
Vfinish_output_bmp
p31
tp32
sL9263L
(F64.0
L4203312L
Vput_LZW_pixel_rows
p33
tp34
sL11311L
(F2.0
L4205584L
Vput_demapped_gray
p35
tp36
sL4145L
(F7.529411764705882
L4197920L
Vmain
p37
tp38
sL14387L
(F1.0
L4208608L
Vjinit_write_bmp
p39
tp40
sL12340L
(F4.0
L4206528L
Vput_pixel_rows
p41
tp42
sL12343L
(F1.3333333333333333
L4206528L
Vput_pixel_rows
p43
tp44
sL6200L
(F4.0
L4200352L
Vparse_switches
p45
tp46
sL13371L
(F4.0
L4207376L
Vfinish_output_bmp
p47
tp48
sL15424L
(F3.764705882352941
L4209344L
Vread_color_map
p49
tp50
sL3136L
(F1.0
L4197440L
V_init
p51
tp52
sL8256L
(F1.0
L4202560L
Vfinish_output_ppm
p53
tp54
sL11328L
(F1.3333333333333333
L4205584L
Vput_demapped_gray
p55
tp56
sL12358L
(F2.6666666666666665
L4206528L
Vput_pixel_rows
p57
tp58
sL9292L
(F6.4
L4203312L
Vput_LZW_pixel_rows
p59
tp60
sL7247L
(F2097152.0
L4200352L
Vparse_switches
p61
tp62
sL12368L
(F1.7777777777777777
L4206528L
Vput_pixel_rows
p63
tp64
sL3152L
(F2.0
L4197440L
V_init
p65
tp66
sL3157L
(F1.0
L4197440L
V_init
p67
tp68
sL11350L
(F4.0
L4205584L
Vput_demapped_gray
p69
tp70
sL6231L
(F8.0
L4200352L
Vparse_switches
p71
tp72
sL10327L
(F32.0
L4203840L
Vemit_header
p73
tp74
sL14423L
(F8.0
L4208608L
Vjinit_write_bmp
p75
tp76
sL13401L
(F8.0
L4207376L
Vfinish_output_bmp
p77
tp78
sL9306L
(F1.3617021276595744
L4203312L
Vput_LZW_pixel_rows
p79
tp80
sL11354L
(F1.3333333333333333
L4205584L
Vput_demapped_gray
p81
tp82
sL12381L
(F1.7777777777777777
L4206528L
Vput_pixel_rows
p83
tp84
sL15455L
(F7.529411764705882
L4209344L
Vread_color_map
p85
tp86
sL4191L
(F15.858407079646017
L4197920L
Vmain
p87
tp88
sL14432L
(F5.333333333333333
L4208608L
Vjinit_write_bmp
p89
tp90
sL4192L
(F10.572271386430678
L4197920L
Vmain
p91
tp92
sL6241L
(F5.897903268025209
L4200352L
Vparse_switches
p93
tp94
sL8290L
(F2.0
L4202560L
Vfinish_output_ppm
p95
tp96
sL14440L
(F16.0
L4208608L
Vjinit_write_bmp
p97
tp98
sL13417L
(F4.0
L4207376L
Vfinish_output_bmp
p99
tp100
sL6249L
(F16.0
L4200352L
Vparse_switches
p101
tp102
sL11371L
(F2.0
L4205584L
Vput_demapped_gray
p103
tp104
sL6251L
(F8.0
L4200352L
Vparse_switches
p105
tp106
sL10349L
(F16.0
L4203840L
Vemit_header
p107
tp108
sL7278L
(F262144.0
L4200352L
Vparse_switches
p109
tp110
sL14446L
(F5.333333333333333
L4208608L
Vjinit_write_bmp
p111
tp112
sL12400L
(F1.0
L4206704L
Vput_gray_rows
p113
tp114
sL11376L
(F1.0
L4205680L
Vfinish_output_tga
p115
tp116
sL9328L
(F12.8
L4203312L
Vput_LZW_pixel_rows
p117
tp118
sL8304L
(F2.0
L4202560L
Vfinish_output_ppm
p119
tp120
sL13425L
(F8.0
L4207376L
Vfinish_output_bmp
p121
tp122
sL15480L
(F5.333333333333333
L4209344L
Vread_color_map
p123
tp124
sL9344L
(F8.0
L4203312L
Vput_LZW_pixel_rows
p125
tp126
sL6275L
(F8.533333333333333
L4200352L
Vparse_switches
p127
tp128
sL13449L
(F2.0
L4207376L
Vfinish_output_bmp
p129
tp130
sL7306L
(F524288.0
L4200352L
Vparse_switches
p131
tp132
sL6287L
(F32.0
L4200352L
Vparse_switches
p133
tp134
sL10384L
(F64.0
L4203840L
Vemit_header
p135
tp136
sL8336L
(F1.0
L4202640L
Vjinit_write_ppm
p137
tp138
sL11410L
(F2.0
L4205680L
Vfinish_output_tga
p139
tp140
sL13459L
(F4.0
L4207376L
Vfinish_output_bmp
p141
tp142
sL4244L
(F10.572271386430678
L4197920L
Vmain
p143
tp144
sL15509L
(F10.666666666666666
L4209344L
Vread_color_map
p145
tp146
sL9368L
(F16.0
L4203312L
Vput_LZW_pixel_rows
p147
tp148
sL7323L
(F1048576.0
L4200352L
Vparse_switches
p149
tp150
sL11424L
(F2.0
L4205680L
Vfinish_output_tga
p151
tp152
sL15520L
(F2.0
L4209344L
Vread_color_map
p153
tp154
sL12461L
(F2.0
L4206704L
Vput_gray_rows
p155
tp156
sL13485L
(F2.0
L4207376L
Vfinish_output_bmp
p157
tp158
sL6318L
(F64.0
L4200352L
Vparse_switches
p159
tp160
sL14511L
(F32.0
L4208608L
Vjinit_write_bmp
p161
tp162
sL10416L
(F2.0
L4203840L
Vemit_header
p163
tp164
sL15536L
(F4.0
L4209344L
Vread_color_map
p165
tp166
sL14515L
(F16.0
L4208608L
Vjinit_write_bmp
p167
tp168
sL15545L
(F1.3333333333333333
L4209344L
Vread_color_map
p169
tp170
sL6334L
(F16.0
L4200352L
Vparse_switches
p171
tp172
sL7358L
(F2097152.0
L4200352L
Vparse_switches
p173
tp174
sL12480L
(F1.3333333333333333
L4206704L
Vput_gray_rows
p175
tp176
sL11456L
(F1.0
L4205760L
Vwrite_header
p177
tp178
sL9408L
(F12.8
L4203312L
Vput_LZW_pixel_rows
p179
tp180
sL4293L
(F21.144542772861357
L4197920L
Vmain
p181
tp182
sL15562L
(F4.0
L4209344L
Vread_color_map
p183
tp184
sL7370L
(F4194304.0
L4200352L
Vparse_switches
p185
tp186
sL10443L
(F4.0
L4203840L
Vemit_header
p187
tp188
sL4301L
(F10.572271386430678
L4197920L
Vmain
p189
tp190
sL7375L
(F2097152.0
L4200352L
Vparse_switches
p191
tp192
sL12496L
(F4.0
L4206704L
Vput_gray_rows
p193
tp194
sL12499L
(F1.3333333333333333
L4206704L
Vput_gray_rows
p195
tp196
sL6358L
(F32.0
L4200352L
Vparse_switches
p197
tp198
sL4310L
(F21.144542772861357
L4197920L
Vmain
p199
tp200
sL4318L
(F10.572271386430678
L4197920L
Vmain
p201
tp202
sL14560L
(F4.0
L4208608L
Vjinit_write_bmp
p203
tp204
sL12514L
(F2.6666666666666665
L4206704L
Vput_gray_rows
p205
tp206
sL15587L
(F8.0
L4209344L
Vread_color_map
p207
tp208
sL7395L
(F2097152.0
L4200352L
Vparse_switches
p209
tp210
sL15592L
(F4.0
L4209344L
Vread_color_map
p211
tp212
sL12520L
(F1.7777777777777777
L4206704L
Vput_gray_rows
p213
tp214
sL6382L
(F64.0
L4200352L
Vparse_switches
p215
tp216
sL8432L
(F2.0
L4202640L
Vjinit_write_ppm
p217
tp218
sL11505L
(F2.0
L4205760L
Vwrite_header
p219
tp220
sL15603L
(F6.4
L4209344L
Vread_color_map
p221
tp222
sL4339L
(F896.0
L4197920L
Vmain
p223
tp224
sL12533L
(F1.7777777777777777
L4206704L
Vput_gray_rows
p225
tp226
sL14592L
(F2.0
L4208608L
Vjinit_write_bmp
p227
tp228
sL15619L
(F5.333333333333333
L4209344L
Vread_color_map
p229
tp230
sL4360L
(F896.0
L4197920L
Vmain
p231
tp232
sL6410L
(F128.0
L4200352L
Vparse_switches
p233
tp234
sL14606L
(F8.0
L4208608L
Vjinit_write_bmp
p235
tp236
sL7439L
(F4194304.0
L4200352L
Vparse_switches
p237
tp238
sL12560L
(F1.0
L4206864L
Vwrite_colormap
p239
tp240
sL10512L
(F1.0
L4204816L
Vstart_output_gif
p241
tp242
sL15634L
(F8.0
L4209344L
Vread_color_map
p243
tp244
sL8472L
(F2.0
L4202640L
Vjinit_write_ppm
p245
tp246
sL10522L
(F2.0
L4204816L
Vstart_output_gif
p247
tp248
sL7455L
(F524288.0
L4200352L
Vparse_switches
p249
tp250
sL14624L
(F1.0
L4208928L
Vadd_map_entry
p251
tp252
sL6434L
(F256.0
L4200352L
Vparse_switches
p253
tp254
sL4386L
(F896.0
L4197920L
Vmain
p255
tp256
sL6446L
(F512.0
L4200352L
Vparse_switches
p257
tp258
sL10544L
(F2.0
L4204816L
Vstart_output_gif
p259
tp260
sL15664L
(F64.0
L4209344L
Vread_color_map
p261
tp262
sL11571L
(F4.0
L4205760L
Vwrite_header
p263
tp264
sL15669L
(F42.666666666666664
L4209344L
Vread_color_map
p265
tp266
sL7479L
(F1048576.0
L4200352L
Vparse_switches
p267
tp268
sL4409L
(F896.0
L4197920L
Vmain
p269
tp270
sL11581L
(F1.0
L4205760L
Vwrite_header
p271
tp272
sL9536L
(F1.0
L4203840L
Vemit_header
p273
tp274
sL12610L
(F2.0
L4206864L
Vwrite_colormap
p275
tp276
sL7491L
(F1048576.0
L4200352L
Vparse_switches
p277
tp278
sL6474L
(F1024.0
L4200352L
Vparse_switches
p279
tp280
sL8523L
(F4.0
L4202640L
Vjinit_write_ppm
p281
tp282
sL14668L
(F2.0
L4208928L
Vadd_map_entry
p283
tp284
sL15694L
(F7.314285714285714
L4209344L
Vread_color_map
p285
tp286
sL12623L
(F4.0
L4206864L
Vwrite_colormap
p287
tp288
sL10576L
(F1.0
L4204880L
Vfinish_output_gif
p289
tp290
sL14672L
(F2.2857142857142856
L4208928L
Vadd_map_entry
p291
tp292
sL4435L
(F448.0
L4197920L
Vmain
p293
tp294
sL6486L
(F2.0
L4200352L
Vparse_switches
p295
tp296
sL12630L
(F8.0
L4206864L
Vwrite_colormap
p297
tp298
sL11608L
(F8.0
L4205760L
Vwrite_header
p299
tp300
sL14680L
(F1.391304347826087
L4208928L
Vadd_map_entry
p301
tp302
sL7515L
(F2097152.0
L4200352L
Vparse_switches
p303
tp304
sL6496L
(F8.0
L4200352L
Vparse_switches
p305
tp306
sL12640L
(F16.0
L4206864L
Vwrite_colormap
p307
tp308
sL14689L
(F4.0
L4208928L
Vadd_map_entry
p309
tp310
sL6501L
(F1024.0
L4200352L
Vparse_switches
p311
tp312
sL7527L
(F2097152.0
L4200352L
Vparse_switches
p313
tp314
sL10599L
(F1.0
L4204880L
Vfinish_output_gif
p315
tp316
sL11623L
(F4.0
L4205760L
Vwrite_header
p317
tp318
sL12649L
(F5.333333333333333
L4206864L
Vwrite_colormap
p319
tp320
sL4458L
(F32.0
L4197920L
Vmain
p321
tp322
sL14698L
(F8.0
L4208928L
Vadd_map_entry
p323
tp324
sL8560L
(F4.0
L4202640L
Vjinit_write_ppm
p325
tp326
sL14707L
(F16.0
L4208928L
Vadd_map_entry
p327
tp328
sL9589L
(F2.0
L4203840L
Vemit_header
p329
tp330
sL4471L
(F64.0
L4197920L
Vmain
p331
tp332
sL11639L
(F8.0
L4205760L
Vwrite_header
p333
tp334
sL10618L
(F4.0
L4204880L
Vfinish_output_gif
p335
tp336
sL15742L
(F13.128205128205128
L4209344L
Vread_color_map
p337
tp338
sL7551L
(F4194304.0
L4200352L
Vparse_switches
p339
tp340
sL9600L
(F1.3333333333333333
L4203840L
Vemit_header
p341
tp342
sL6528L
(F2048.0
L4200352L
Vparse_switches
p343
tp344
sL11648L
(F2.0
L4205760L
Vwrite_header
p345
tp346
sL14720L
(F4.571428571428571
L4208928L
Vadd_map_entry
p347
tp348
sL14728L
(F9.142857142857142
L4208928L
Vadd_map_entry
p349
tp350
sL6540L
(F256.0
L4200352L
Vparse_switches
p351
tp352
sL7566L
(F4194304.0
L4200352L
Vparse_switches
p353
tp354
sL8592L
(F1.0
L4202896L
Vflush_packet
p355
tp356
sL9616L
(F8.0
L4203840L
Vemit_header
p357
tp358
sL9618L
(F1.1428571428571428
L4203840L
Vemit_header
p359
tp360
sL10645L
(F1.3333333333333333
L4204880L
Vfinish_output_gif
p361
tp362
sL8599L
(F2.0
L4202896L
Vflush_packet
p363
tp364
sL13723L
(F2.6666666666666665
L4207376L
Vfinish_output_bmp
p365
tp366
sL12703L
(F16.0
L4206864L
Vwrite_colormap
p367
tp368
sL9632L
(F8.0
L4203840L
Vemit_header
p369
tp370
sL15776L
(F186.1818181818182
L4209344L
Vread_color_map
p371
tp372
sL7590L
(F8388608.0
L4200352L
Vparse_switches
p373
tp374
sL6568L
(F512.0
L4200352L
Vparse_switches
p375
tp376
sL11693L
(F2.0
L4205760L
Vwrite_header
p377
tp378
sL6576L
(F1024.0
L4200352L
Vparse_switches
p379
tp380
sL7602L
(F16777216.0
L4200352L
Vparse_switches
p381
tp382
sL12722L
(F32.0
L4206864L
Vwrite_colormap
p383
tp384
sL15795L
(F512.0
L4209344L
Vread_color_map
p385
tp386
sL12728L
(F1.6
L4206864L
Vwrite_colormap
p387
tp388
sL15800L
(F23.272727272727273
L4209344L
Vread_color_map
p389
tp390
sL14779L
(F1.391304347826087
L4208928L
Vadd_map_entry
p391
tp392
sL12733L
(F64.0
L4206864L
Vwrite_colormap
p393
tp394
sL13757L
(F16.0
L4207376L
Vfinish_output_bmp
p395
tp396
sL12735L
(F128.0
L4206864L
Vwrite_colormap
p397
tp398
sL11712L
(F4.0
L4205760L
Vwrite_header
p399
tp400
sL4544L
(F1.0
L4198848L
Vderegister_tm_clones
p401
tp402
sL8642L
(F4.0
L4202896L
Vflush_packet
p403
tp404
sL7619L
(F8388608.0
L4200352L
Vparse_switches
p405
tp406
sL12744L
(F256.0
L4206864L
Vwrite_colormap
p407
tp408
sL6604L
(F2048.0
L4200352L
Vparse_switches
p409
tp410
sL10700L
(F5.333333333333333
L4204880L
Vfinish_output_gif
p411
tp412
sL15820L
(F204.8
L4209344L
Vread_color_map
p413
tp414
sL13773L
(F8.0
L4207376L
Vfinish_output_bmp
p415
tp416
sL11727L
(F8.0
L4205760L
Vwrite_header
p417
tp418
sL12752L
(F85.33333333333333
L4206864L
Vwrite_colormap
p419
tp420
sL8658L
(F2.0
L4202896L
Vflush_packet
p421
tp422
sL11732L
(F1.0
L4206048L
Vstart_output_tga
p423
tp424
sL4565L
(F2.0
L4198848L
Vderegister_tm_clones
p425
tp426
sL6616L
(F67108864.0
L4200352L
Vparse_switches
p427
tp428
sL10712L
(F8.0
L4204880L
Vfinish_output_gif
p429
tp430
sL8666L
(F1.0
L4202896L
Vflush_packet
p431
tp432
sL7643L
(F11184810.666666666
L4200352L
Vparse_switches
p433
tp434
sL5597L
(F1.0
L4199904L
Vprint_text_marker
p435
tp436
sL4575L
(F4.0
L4198848L
Vderegister_tm_clones
p437
tp438
sL9696L
(F2.6666666666666665
L4203840L
Vemit_header
p439
tp440
sL8672L
(F1.0
L4202976L
Voutput
p441
tp442
sL5600L
(F1.0
L4199904L
Vprint_text_marker
p443
tp444
sL11744L
(F1.0
L4206048L
Vstart_output_tga
p445
tp446
sL14816L
(F1.0
L4209120L
Vread_pbm_integer
p447
tp448
sL15840L
(F16.0
L4209344L
Vread_color_map
p449
tp450
sL10728L
(F5.333333333333333
L4204880L
Vfinish_output_gif
p451
tp452
sL7658L
(F16777216.0
L4200352L
Vparse_switches
p453
tp454
sL13803L
(F16.0
L4207376L
Vfinish_output_bmp
p455
tp456
sL15851L
(F32.0
L4209344L
Vread_color_map
p457
tp458
sL4592L
(F1.3333333333333333
L4198848L
Vderegister_tm_clones
p459
tp460
sL14832L
(F0.810126582278481
L4209120L
Vread_pbm_integer
p461
tp462
sL15856L
(F32.0
L4209344L
Vread_color_map
p463
tp464
sL6644L
(F134217728.0
L4200352L
Vparse_switches
p465
tp466
sL11770L
(F2.0
L4206048L
Vstart_output_tga
p467
tp468
sL13819L
(F8.0
L4207376L
Vfinish_output_bmp
p469
tp470
sL6652L
(F268435456.0
L4200352L
Vparse_switches
p471
tp472
sL12797L
(F256.0
L4206864L
Vwrite_colormap
p473
tp474
sL14845L
(F1.3473684210526315
L4209120L
Vread_pbm_integer
p475
tp476
sL13823L
(F16.0
L4207376L
Vfinish_output_bmp
p477
tp478
sL4608L
(F1.0
L4198912L
Vregister_tm_clones
p479
tp480
sL15872L
(F46.54545454545455
L4209344L
Vread_color_map
p481
tp482
sL8705L
(F2.0
L4202976L
Voutput
p483
tp484
sL7682L
(F33554432.0
L4200352L
Vparse_switches
p485
tp486
sL14850L
(F2.3063063063063063
L4209120L
Vread_pbm_integer
p487
tp488
sL11779L
(F4.0
L4206048L
Vstart_output_tga
p489
tp490
sL14855L
(F8.0
L4209120L
Vread_pbm_integer
p491
tp492
sL8712L
(F2.0
L4202976L
Voutput
p493
tp494
sL10760L
(F2.0
L4204880L
Vfinish_output_gif
p495
tp496
sL15880L
(F128.0
L4209344L
Vread_color_map
p497
tp498
sL14860L
(F16.0
L4209120L
Vread_pbm_integer
p499
tp500
sL11790L
(F8.0
L4206048L
Vstart_output_tga
p501
tp502
sL12815L
(F85.33333333333333
L4206864L
Vwrite_colormap
p503
tp504
sL5648L
(F2.0
L4199904L
Vprint_text_marker
p505
tp506
sL15888L
(F85.33333333333333
L4209344L
Vread_color_map
p507
tp508
sL14865L
(F32.0
L4209120L
Vread_pbm_integer
p509
tp510
sL13842L
(F2.6666666666666665
L4207376L
Vfinish_output_bmp
p511
tp512
sL14870L
(F64.0
L4209120L
Vread_pbm_integer
p513
tp514
sL13849L
(F2.1333333333333333
L4207376L
Vfinish_output_bmp
p515
tp516
sL6685L
(F9.76367999051695
L4200352L
Vparse_switches
p517
tp518
sL7710L
(F67108864.0
L4200352L
Vparse_switches
p519
tp520
sL8734L
(F1.3333333333333333
L4202976L
Voutput
p521
tp522
sL13854L
(F5.333333333333333
L4207376L
Vfinish_output_bmp
p523
tp524
sL14878L
(F128.0
L4209120L
Vread_pbm_integer
p525
tp526
sL3616L
(F1.0
L4197920L
Vmain
p527
tp528
sL10784L
(F1.0
L4205088L
Vjinit_write_gif
p529
tp530
sL12832L
(F64.0
L4206864L
Vwrite_colormap
p531
tp532
sL13856L
(F4.7407407407407405
L4207376L
Vfinish_output_bmp
p533
tp534
sL14880L
(F4.0
L4209120L
Vread_pbm_integer
p535
tp536
sL6690L
(F19.883495145631066
L4200352L
Vparse_switches
p537
tp538
sL11810L
(F16.0
L4206048L
Vstart_output_tga
p539
tp540
sL4643L
(F2.0
L4198912L
Vregister_tm_clones
p541
tp542
sL5668L
(F4.0
L4199904L
Vprint_text_marker
p543
tp544
sL14885L
(F1.3473684210526315
L4209120L
Vread_pbm_integer
p545
tp546
sL13866L
(F10.666666666666666
L4207376L
Vfinish_output_bmp
p547
tp548
sL4653L
(F4.0
L4198912L
Vregister_tm_clones
p549
tp550
sL7725L
(F134217728.0
L4200352L
Vparse_switches
p551
tp552
sL14898L
(F4.0
L4209120L
Vread_pbm_integer
p553
tp554
sL8758L
(F4.0
L4202976L
Voutput
p555
tp556
sL11831L
(F10.666666666666666
L4206048L
Vstart_output_tga
p557
tp558
sL14903L
(F8.0
L4209120L
Vread_pbm_integer
p559
tp560
sL4664L
(F1.3333333333333333
L4198912L
Vregister_tm_clones
p561
tp562
sL6713L
(F39.76699029126213
L4200352L
Vparse_switches
p563
tp564
sL4672L
(F1.0
L4198976L
V__do_global_dtors_aux
p565
tp566
sL11840L
(F9.142857142857142
L4206048L
Vstart_output_tga
p567
tp568
sL14912L
(F2.6666666666666665
L4209120L
Vread_pbm_integer
p569
tp570
sL13891L
(F5.333333333333333
L4207376L
Vfinish_output_bmp
p571
tp572
sL5701L
(F1.0
L4199904L
Vprint_text_marker
p573
tp574
sL6725L
(F2048.0
L4200352L
Vparse_switches
p575
tp576
sL8776L
(F1.3333333333333333
L4202976L
Voutput
p577
tp578
sL4681L
(F2.0
L4198976L
V__do_global_dtors_aux
p579
tp580
sL7753L
(F268435456.0
L4200352L
Vparse_switches
p581
tp582
sL5712L
(F0.7335243553008596
L4199904L
Vprint_text_marker
p583
tp584
sL12880L
(F4.0
L4206864L
Vwrite_colormap
p585
tp586
sL15952L
(F85.33333333333333
L4209344L
Vread_color_map
p587
tp588
sL8786L
(F4.0
L4202976L
Voutput
p589
tp590
sL14933L
(F2.6122448979591835
L4209120L
Vread_pbm_integer
p591
tp592
sL5718L
(F1.4545454545454546
L4199904L
Vprint_text_marker
p593
tp594
sL3672L
(F2.0
L4197920L
Vmain
p595
tp596
sL12888L
(F8.0
L4206864L
Vwrite_colormap
p597
tp598
sL4698L
(F1.0
L4198976L
V__do_global_dtors_aux
p599
tp600
sL10843L
(F2.0
L4205088L
Vjinit_write_gif
p601
tp602
sL15967L
(F170.66666666666666
L4209344L
Vread_color_map
p603
tp604
sL4704L
(F1.0
L4199008L
Vframe_dummy
p605
tp606
sL6752L
(F4096.0
L4200352L
Vparse_switches
p607
tp608
sL8800L
(F8.0
L4202976L
Voutput
p609
tp610
sL12896L
(F8.0
L4206864L
Vwrite_colormap
p611
tp612
sL3681L
(F1.0
L4197920L
Vmain
p613
tp614
sL15972L
(F32.0
L4209344L
Vread_color_map
p615
tp616
sL5733L
(F5.333333333333333
L4199904L
Vprint_text_marker
p617
tp618
sL4715L
(F1.3333333333333333
L4199008L
Vframe_dummy
p619
tp620
sL6764L
(F512.0
L4200352L
Vparse_switches
p621
tp622
sL10861L
(F1.0
L4205088L
Vjinit_write_gif
p623
tp624
sL12909L
(F5.333333333333333
L4206864L
Vwrite_colormap
p625
tp626
sL5742L
(F10.666666666666666
L4199904L
Vprint_text_marker
p627
tp628
sL8814L
(F2.6666666666666665
L4202976L
Voutput
p629
tp630
sL8816L
(F8.0
L4202976L
Voutput
p631
tp632
sL4720L
(F2.0
L4199008L
Vframe_dummy
p633
tp634
sL14960L
(F6.826666666666667
L4209120L
Vread_pbm_integer
p635
tp636
sL13939L
(F10.666666666666666
L4207376L
Vfinish_output_bmp
p637
tp638
sL10870L
(F1.3333333333333333
L4205088L
Vjinit_write_gif
p639
tp640
sL5751L
(F21.333333333333332
L4199904L
Vprint_text_marker
p641
tp642
sL13944L
(F7.111111111111111
L4207376L
Vfinish_output_bmp
p643
tp644
sL14968L
(F6.826666666666667
L4209120L
Vread_pbm_integer
p645
tp646
sL15993L
(F7.26241134751773
L4209344L
Vread_color_map
p647
tp648
sL4730L
(F4.0
L4199008L
Vframe_dummy
p649
tp650
sL15998L
(F1.0
L4210304L
Vkeymatch
p651
tp652
sL14975L
(F1.8618181818181818
L4209120L
Vread_pbm_integer
p653
tp654
sL8832L
(F1.0
L4203136L
Vput_raw_pixel_rows
p655
tp656
sL7808L
(F1.0
L4202112L
Vput_demapped_rgb
p657
tp658
sL5760L
(F42.666666666666664
L4199904L
Vprint_text_marker
p659
tp660
sL16000L
(F1.0
L4210304L
Vkeymatch
p661
tp662
sL6788L
(F682.6666666666666
L4200352L
Vparse_switches
p663
tp664
sL10886L
(F1.1428571428571428
L4205088L
Vjinit_write_gif
p665
tp666
sL14988L
(F5.12
L4209120L
Vread_pbm_integer
p667
tp668
sL6797L
(F2048.0
L4200352L
Vparse_switches
p669
tp670
sL11917L
(F2.9767441860465116
L4206048L
Vstart_output_tga
p671
tp672
sL13965L
(F21.333333333333332
L4207376L
Vfinish_output_bmp
p673
tp674
sL9870L
(F16.0
L4203840L
Vemit_header
p675
tp676
sL4752L
(F1.0
L4199056L
Vjpeg_getc
p677
tp678
sL5778L
(F85.33333333333333
L4199904L
Vprint_text_marker
p679
tp680
sL13970L
(F4.7407407407407405
L4207376L
Vfinish_output_bmp
p681
tp682
sL14996L
(F6.826666666666667
L4209120L
Vread_pbm_integer
p683
tp684
sL11925L
(F2.169491525423729
L4206048L
Vstart_output_tga
p685
tp686
sL10903L
(F8.0
L4205088L
Vjinit_write_gif
p687
tp688
sL13978L
(F9.481481481481481
L4207376L
Vfinish_output_bmp
p689
tp690
sL16027L
(F2.0
L4210304L
Vkeymatch
p691
tp692
sL8861L
(F2.0
L4203136L
Vput_raw_pixel_rows
p693
tp694
sL11936L
(F4.0
L4206048L
Vstart_output_tga
p695
tp696
sL15008L
(F10.24
L4209120L
Vread_pbm_integer
p697
tp698
sL4771L
(F1.0
L4199056L
Vjpeg_getc
p699
tp700
sL13987L
(F4.7407407407407405
L4207376L
Vfinish_output_bmp
p701
tp702
sL12965L
(F16.0
L4206864L
Vwrite_colormap
p703
tp704
sL15013L
(F3.1507692307692308
L4209120L
Vread_pbm_integer
p705
tp706
sL10918L
(F4.0
L4205088L
Vjinit_write_gif
p707
tp708
sL7847L
(F2.0
L4202112L
Vput_demapped_rgb
p709
tp710
sL16039L
(F4.0
L4210304L
Vkeymatch
p711
tp712
sL8872L
(F4.0
L4203136L
Vput_raw_pixel_rows
p713
tp714
sL5801L
(F170.66666666666666
L4199904L
Vprint_text_marker
p715
tp716
sL7856L
(F1.3333333333333333
L4202112L
Vput_demapped_rgb
p717
tp718
sL5808L
(F2.6256410256410256
L4199904L
Vprint_text_marker
p719
tp720
sL15026L
(F10.24
L4209120L
Vread_pbm_integer
p721
tp722
sL8884L
(F1.3333333333333333
L4203136L
Vput_raw_pixel_rows
p723
tp724
sL5813L
(F5.251282051282051
L4199904L
Vprint_text_marker
p725
tp726
sL14007L
(F9.481481481481481
L4207376L
Vfinish_output_bmp
p727
tp728
sL12984L
(F2.0
L4206864L
Vwrite_colormap
p729
tp730
sL6842L
(F1024.0
L4200352L
Vparse_switches
p731
tp732
sL11968L
(F2.0
L4206048L
Vstart_output_tga
p733
tp734
sL4800L
(F2.0
L4199056L
Vjpeg_getc
p735
tp736
sL12992L
(F2.0
L4206864L
Vwrite_colormap
p737
tp738
sL15040L
(F1.0
L4209344L
Vread_color_map
p739
tp740
sL16064L
(F8.0
L4210304L
Vkeymatch
p741
tp742
sL5830L
(F2.6256410256410256
L4199904L
Vprint_text_marker
p743
tp744
sL6855L
(F1024.0
L4200352L
Vparse_switches
p745
tp746
sL14023L
(F4.7407407407407405
L4207376L
Vfinish_output_bmp
p747
tp748
sL4810L
(F4.0
L4199056L
Vjpeg_getc
p749
tp750
sL8910L
(F4.0
L4203136L
Vput_raw_pixel_rows
p751
tp752
sL13007L
(F1.3333333333333333
L4206864L
Vwrite_colormap
p753
tp754
sL10960L
(F8.0
L4205088L
Vjinit_write_gif
p755
tp756
sL9936L
(F32.0
L4203840L
Vemit_header
p757
tp758
sL11986L
(F4.0
L4206048L
Vstart_output_tga
p759
tp760
sL16082L
(F16.0
L4210304L
Vkeymatch
p761
tp762
sL5848L
(F85.33333333333333
L4199904L
Vprint_text_marker
p763
tp764
sL9945L
(F64.0
L4203840L
Vemit_header
p765
tp766
sL4826L
(F2.0
L4199056L
Vjpeg_getc
p767
tp768
sL7899L
(F4.0
L4202112L
Vput_demapped_rgb
p769
tp770
sL14043L
(F9.481481481481481
L4207376L
Vfinish_output_bmp
p771
tp772
sL6879L
(F2048.0
L4200352L
Vparse_switches
p773
tp774
sL7903L
(F1.3333333333333333
L4202112L
Vput_demapped_rgb
p775
tp776
sL16097L
(F3.5555555555555554
L4210304L
Vkeymatch
p777
tp778
sL9955L
(F128.0
L4203840L
Vemit_header
p779
tp780
sL12008L
(F16.0
L4206048L
Vstart_output_tga
p781
tp782
sL16104L
(F8.0
L4210304L
Vkeymatch
p783
tp784
sL8938L
(F1.3333333333333333
L4203136L
Vput_raw_pixel_rows
p785
tp786
sL14058L
(F4.0
L4207376L
Vfinish_output_bmp
p787
tp788
sL10992L
(F4.0
L4205088L
Vjinit_write_gif
p789
tp790
sL7921L
(F2.0
L4202112L
Vput_demapped_rgb
p791
tp792
sL13043L
(F4.0
L4206864L
Vwrite_colormap
p793
tp794
sL3831L
(F8.0
L4197920L
Vmain
p795
tp796
sL6903L
(F4096.0
L4200352L
Vparse_switches
p797
tp798
sL9979L
(F16.0
L4203840L
Vemit_header
p799
tp800
sL16124L
(F4.0
L4210304L
Vkeymatch
p801
tp802
sL3839L
(F16.0
L4197920L
Vmain
p803
tp804
sL13055L
(F4.0
L4206864L
Vwrite_colormap
p805
tp806
sL7936L
(F1.0
L4202240L
Vput_demapped_gray
p807
tp808
sL5888L
(F21.333333333333332
L4199904L
Vprint_text_marker
p809
tp810
sL11008L
(F2.0
L4205088L
Vjinit_write_gif
p811
tp812
sL16129L
(F2.4615384615384617
L4210304L
Vkeymatch
p813
tp814
sL5894L
(F42.666666666666664
L4199904L
Vprint_text_marker
p815
tp816
sL3847L
(F10.666666666666666
L4197920L
Vmain
p817
tp818
sL6923L
(F8192.0
L4200352L
Vparse_switches
p819
tp820
sL11021L
(F4.0
L4205088L
Vjinit_write_gif
p821
tp822
sL9998L
(F12.19047619047619
L4203840L
Vemit_header
p823
tp824
sL13072L
(F1.0
L4207376L
Vfinish_output_bmp
p825
tp826
sL6930L
(F4096.0
L4200352L
Vparse_switches
p827
tp828
sL16146L
(F2.0
L4210304L
Vkeymatch
p829
tp830
sL10004L
(F32.0
L4203840L
Vemit_header
p831
tp832
sL16148L
(F1.7777777777777777
L4210304L
Vkeymatch
p833
tp834
sL3863L
(F32.0
L4197920L
Vmain
p835
tp836
sL11032L
(F8.0
L4205088L
Vjinit_write_gif
p837
tp838
sL12056L
(F8.0
L4206048L
Vstart_output_tga
p839
tp840
sL15132L
(F2.0
L4209344L
Vread_color_map
p841
tp842
sL7967L
(F2.0
L4202240L
Vput_demapped_gray
p843
tp844
sL6949L
(F4096.0
L4200352L
Vparse_switches
p845
tp846
sL15141L
(F4.0
L4209344L
Vread_color_map
p847
tp848
sL5928L
(F10.666666666666666
L4199904L
Vprint_text_marker
p849
tp850
sL10024L
(F128.0
L4203840L
Vemit_header
p851
tp852
sL14123L
(F4.0
L4207376L
Vfinish_output_bmp
p853
tp854
sL3885L
(F21.333333333333332
L4197920L
Vmain
p855
tp856
sL9008L
(F1.0
L4203312L
Vput_LZW_pixel_rows
p857
tp858
sL7984L
(F1.3333333333333333
L4202240L
Vput_demapped_gray
p859
tp860
sL6973L
(F8192.0
L4200352L
Vparse_switches
p861
tp862
sL8006L
(F4.0
L4202240L
Vput_demapped_gray
p863
tp864
sL5960L
(F42.666666666666664
L4199904L
Vprint_text_marker
p865
tp866
sL8010L
(F1.3333333333333333
L4202240L
Vput_demapped_gray
p867
tp868
sL6988L
(F4096.0
L4200352L
Vparse_switches
p869
tp870
sL13134L
(F2.0
L4207376L
Vfinish_output_bmp
p871
tp872
sL16208L
(F1.0
L4210512L
V__libc_csu_init
p873
tp874
sL9043L
(F2.0
L4203312L
Vput_LZW_pixel_rows
p875
tp876
sL5976L
(F42.666666666666664
L4199904L
Vprint_text_marker
p877
tp878
sL13144L
(F4.0
L4207376L
Vfinish_output_bmp
p879
tp880
sL8028L
(F2.0
L4202240L
Vput_demapped_gray
p881
tp882
sL11104L
(F1.0
L4205408L
Vput_pixel_rows
p883
tp884
sL9056L
(F4.0
L4203312L
Vput_LZW_pixel_rows
p885
tp886
sL7015L
(F8192.0
L4200352L
Vparse_switches
p887
tp888
sL13164L
(F2.0
L4207376L
Vfinish_output_bmp
p889
tp890
sL9069L
(F3.2
L4203312L
Vput_LZW_pixel_rows
p891
tp892
sL3951L
(F128.0
L4197920L
Vmain
p893
tp894
sL8048L
(F1.0
L4202352L
Vcopy_pixel_rows
p895
tp896
sL15218L
(F8.0
L4209344L
Vread_color_map
p897
tp898
sL7027L
(F8192.0
L4200352L
Vparse_switches
p899
tp900
sL3957L
(F128.0
L4197920L
Vmain
p901
tp902
sL11125L
(F2.0
L4205408L
Vput_pixel_rows
p903
tp904
sL9078L
(F1.5058823529411764
L4203312L
Vput_LZW_pixel_rows
p905
tp906
sL10104L
(F51.2
L4203840L
Vemit_header
p907
tp908
sL14201L
(F8.0
L4207376L
Vfinish_output_bmp
p909
tp910
sL15227L
(F16.0
L4209344L
Vread_color_map
p911
tp912
sL3964L
(F1.3333333333333333
L4197920L
Vmain
p913
tp914
sL10108L
(F4.830188679245283
L4203840L
Vemit_header
p915
tp916
sL11136L
(F1.3333333333333333
L4205408L
Vput_pixel_rows
p917
tp918
sL6016L
(F4.0
L4199904L
Vprint_text_marker
p919
tp920
sL8066L
(F2.0
L4202352L
Vcopy_pixel_rows
p921
tp922
sL15236L
(F8.0
L4209344L
Vread_color_map
p923
tp924
sL16262L
(F2.0
L4210512L
V__libc_csu_init
p925
tp926
sL9095L
(F4.0
L4203312L
Vput_LZW_pixel_rows
p927
tp928
sL7051L
(F16384.0
L4200352L
Vparse_switches
p929
tp930
sL3980L
(F16.0
L4197920L
Vmain
p931
tp932
sL8080L
(F1.3333333333333333
L4202352L
Vcopy_pixel_rows
p933
tp934
sL16272L
(F1.3333333333333333
L4210512L
V__libc_csu_init
p935
tp936
sL15252L
(F4.0
L4209344L
Vread_color_map
p937
tp938
sL7066L
(F16384.0
L4200352L
Vparse_switches
p939
tp940
sL15262L
(F32.0
L4209344L
Vread_color_map
p941
tp942
sL6048L
(F1.0
L4200352L
Vparse_switches
p943
tp944
sL8097L
(F4.0
L4202352L
Vcopy_pixel_rows
p945
tp946
sL11170L
(F4.0
L4205408L
Vput_pixel_rows
p947
tp948
sL8101L
(F1.3333333333333333
L4202352L
Vcopy_pixel_rows
p949
tp950
sL11174L
(F1.3333333333333333
L4205408L
Vput_pixel_rows
p951
tp952
sL16294L
(F1.3333333333333333
L4210512L
V__libc_csu_init
p953
tp954
sL15272L
(F64.0
L4209344L
Vread_color_map
p955
tp956
sL4013L
(F32.0
L4197920L
Vmain
p957
tp958
sL4017L
(F21.333333333333332
L4197920L
Vmain
p959
tp960
sL7090L
(F21845.333333333332
L4200352L
Vparse_switches
p961
tp962
sL11191L
(F2.0
L4205408L
Vput_pixel_rows
p963
tp964
sL15292L
(F128.0
L4209344L
Vread_color_map
p965
tp966
sL7102L
(F32768.0
L4200352L
Vparse_switches
p967
tp968
sL11200L
(F1.0
L4205504L
Vput_gray_rows
p969
tp970
sL8128L
(F1.0
L4202432L
Vstart_output_ppm
p971
tp972
sL12224L
(F1.0
L4206528L
Vput_pixel_rows
p973
tp974
sL15296L
(F102.4
L4209344L
Vread_color_map
p975
tp976
sL9157L
(F8.0
L4203312L
Vput_LZW_pixel_rows
p977
tp978
sL8136L
(F2.0
L4202432L
Vstart_output_ppm
p979
tp980
sL15304L
(F256.0
L4209344L
Vread_color_map
p981
tp982
sL8141L
(F4.0
L4202432L
Vstart_output_ppm
p983
tp984
sL15312L
(F512.0
L4209344L
Vread_color_map
p985
tp986
sL14289L
(F9.481481481481481
L4207376L
Vfinish_output_bmp
p987
tp988
sL9171L
(F16.0
L4203312L
Vput_LZW_pixel_rows
p989
tp990
sL11221L
(F2.0
L4205504L
Vput_gray_rows
p991
tp992
sL15317L
(F341.3333333333333
L4209344L
Vread_color_map
p993
tp994
sL7126L
(F65536.0
L4200352L
Vparse_switches
p995
tp996
sL14294L
(F1.0
L4208608L
Vjinit_write_bmp
p997
tp998
sL4058L
(F112.0
L4197920L
Vmain
p999
tp1000
sL11232L
(F1.3333333333333333
L4205504L
Vput_gray_rows
p1001
tp1002
sL14304L
(F1.0
L4208608L
Vjinit_write_bmp
p1003
tp1004
sL6118L
(F2.0
L4200352L
Vparse_switches
p1005
tp1006
sL7150L
(F131072.0
L4200352L
Vparse_switches
p1007
tp1008
sL9200L
(F32.0
L4203312L
Vput_LZW_pixel_rows
p1009
tp1010
sL11249L
(F4.0
L4205504L
Vput_gray_rows
p1011
tp1012
sL15346L
(F157.53846153846155
L4209344L
Vread_color_map
p1013
tp1014
sL11253L
(F1.3333333333333333
L4205504L
Vput_gray_rows
p1015
tp1016
sL9206L
(F12.8
L4203312L
Vput_LZW_pixel_rows
p1017
tp1018
sL7162L
(F131072.0
L4200352L
Vparse_switches
p1019
tp1020
sL12285L
(F2.0
L4206528L
Vput_pixel_rows
p1021
tp1022
sL4093L
(F8.0
L4197920L
Vmain
p1023
tp1024
sL6143L
(F1.7777777777777777
L4200352L
Vparse_switches
p1025
tp1026
s.