(dp0
L26625L
(F2.0
L4220912L
Vxnmalloc
p1
tp2
sL18433L
(F32.0
L4212416L
Vmd5_stream
p3
tp4
sL12291L
(F2.0
L4206560L
Vregister_tm_clones
p5
tp6
sL28675L
(F1.0
L4222736L
Vclose_stream
p7
tp8
sL8198L
(F38836.148148148146
L4200368L
Vmain
p9
tp10
sL26631L
(F2.0
L4220912L
Vxnmalloc
p11
tp12
sL20487L
(F8388608.0
L4214240L
Vquotearg_buffer_restyled
p13
tp14
sL10252L
(F12119837.166843034
L4200368L
Vmain
p15
tp16
sL12301L
(F4.0
L4206560L
Vregister_tm_clones
p17
tp18
sL26640L
(F1.0
L4220880L
Vxmalloc
p19
tp20
sL14352L
(F1.0
L4208656L
Vset_uint32
p21
tp22
sL20498L
(F16777216.0
L4214240L
Vquotearg_buffer_restyled
p23
tp24
sL18454L
(F16.0
L4212416L
Vmd5_stream
p25
tp26
sL12312L
(F1.3333333333333333
L4206560L
Vregister_tm_clones
p27
tp28
sL10265L
(F710146.708994709
L4200368L
Vmain
p29
tp30
sL20508L
(F8388608.0
L4214240L
Vquotearg_buffer_restyled
p31
tp32
sL24605L
(F2.0
L4218736L
Vquotearg_char_mem
p33
tp34
sL26656L
(F1.0
L4220960L
Vxrealloc
p35
tp36
sL12320L
(F1.0
L4206624L
V__do_global_dtors_aux
p37
tp38
sL22562L
(F524288.0
L4214240L
Vquotearg_buffer_restyled
p39
tp40
sL24610L
(F2.0
L4218736L
Vquotearg_char_mem
p41
tp42
sL20519L
(F16777216.0
L4214240L
Vquotearg_buffer_restyled
p43
tp44
sL18471L
(F8.0
L4212416L
Vmd5_stream
p45
tp46
sL26665L
(F2.0
L4220960L
Vxrealloc
p47
tp48
sL12329L
(F2.0
L4206624L
V__do_global_dtors_aux
p49
tp50
sL10284L
(F15149796.458553791
L4200368L
Vmain
p51
tp52
sL28717L
(F2.0
L4222736L
Vclose_stream
p53
tp54
sL26670L
(F1.3333333333333333
L4220960L
Vxrealloc
p55
tp56
sL22576L
(F61680.94117647059
L4214240L
Vquotearg_buffer_restyled
p57
tp58
sL20529L
(F8388608.0
L4214240L
Vquotearg_buffer_restyled
p59
tp60
sL8248L
(F77672.29629629629
L4200368L
Vmain
p61
tp62
sL10297L
(F30299592.917107582
L4200368L
Vmain
p63
tp64
sL12346L
(F1.0
L4206624L
V__do_global_dtors_aux
p65
tp66
sL26683L
(F2.6666666666666665
L4220960L
Vxrealloc
p67
tp68
sL20540L
(F16777216.0
L4214240L
Vquotearg_buffer_restyled
p69
tp70
sL18492L
(F1.4545454545454546
L4212416L
Vmd5_stream
p71
tp72
sL6206L
(F0.6701570680628273
L4200368L
Vmain
p73
tp74
sL14399L
(F2.0
L4208656L
Vset_uint32
p75
tp76
sL12352L
(F1.0
L4206656L
Vframe_dummy
p77
tp78
sL26688L
(F1.7777777777777777
L4220960L
Vxrealloc
p79
tp80
sL28737L
(F1.0
L4222736L
Vclose_stream
p81
tp82
sL20550L
(F8388608.0
L4214240L
Vquotearg_buffer_restyled
p83
tp84
sL26696L
(F4.0
L4220960L
Vxrealloc
p85
tp86
sL12363L
(F1.3333333333333333
L4206656L
Vframe_dummy
p87
tp88
sL8268L
(F38836.148148148146
L4200368L
Vmain
p89
tp90
sL18511L
(F4.0
L4212416L
Vmd5_stream
p91
tp92
sL20560L
(F3372.982710092481
L4214240L
Vquotearg_buffer_restyled
p93
tp94
sL12368L
(F2.0
L4206656L
Vframe_dummy
p95
tp96
sL26705L
(F5.333333333333333
L4220960L
Vxrealloc
p97
tp98
sL14419L
(F1.0
L4208656L
Vset_uint32
p99
tp100
sL26710L
(F1.0
L4221024L
Vxnrealloc
p101
tp102
sL20567L
(F6188.571007008484
L4214240L
Vquotearg_buffer_restyled
p103
tp104
sL12378L
(F4.0
L4206656L
Vframe_dummy
p105
tp106
sL10332L
(F1213.6296296296296
L4200368L
Vmain
p107
tp108
sL18527L
(F16.0
L4212416L
Vmd5_stream
p109
tp110
sL26720L
(F1.0
L4221024L
Vxnrealloc
p111
tp112
sL20577L
(F87609.48302872063
L4214240L
Vquotearg_buffer_restyled
p113
tp114
sL6242L
(F2.0
L4200368L
Vmain
p115
tp116
sL22634L
(F123361.88235294117
L4214240L
Vquotearg_buffer_restyled
p117
tp118
sL28779L
(F2.0
L4222736L
Vclose_stream
p119
tp120
sL6251L
(F4.0
L4200368L
Vmain
p121
tp122
sL6253L
(F8.0
L4200368L
Vmain
p123
tp124
sL18542L
(F4.0
L4212416L
Vmd5_stream
p125
tp126
sL12400L
(F1.0
L4206704L
Vfilename_unescape
p127
tp128
sL22640L
(F246723.76470588235
L4214240L
Vquotearg_buffer_restyled
p129
tp130
sL24688L
(F1.0
L4218992L
Vquotearg_n_custom_mem
p131
tp132
sL26740L
(F2.0
L4221024L
Vxnrealloc
p133
tp134
sL8312L
(F77672.29629629629
L4200368L
Vmain
p135
tp136
sL6264L
(F16.0
L4200368L
Vmain
p137
tp138
sL20600L
(F25031.280865348752
L4214240L
Vquotearg_buffer_restyled
p139
tp140
sL22648L
(F493447.5294117647
L4214240L
Vquotearg_buffer_restyled
p141
tp142
sL10361L
(F2427.259259259259
L4200368L
Vmain
p143
tp144
sL26746L
(F2.0
L4221024L
Vxnrealloc
p145
tp146
sL6266L
(F32.0
L4200368L
Vmain
p147
tp148
sL20605L
(F26935.12502508529
L4214240L
Vquotearg_buffer_restyled
p149
tp150
sL28799L
(F1.0
L4222736L
Vclose_stream
p151
tp152
sL22655L
(F197379.01176470588
L4214240L
Vquotearg_buffer_restyled
p153
tp154
sL12415L
(F1.7534246575342465
L4206704L
Vfilename_unescape
p155
tp156
sL26752L
(F1.0
L4221056L
Vx2nrealloc
p157
tp158
sL18560L
(F1.0
L4212880L
Vfadvise
p159
tp160
sL6275L
(F64.0
L4200368L
Vmain
p161
tp162
sL12423L
(F4.0
L4206704L
Vfilename_unescape
p163
tp164
sL20616L
(F77875.09602552945
L4214240L
Vquotearg_buffer_restyled
p165
tp166
sL12427L
(F8.0
L4206704L
Vfilename_unescape
p167
tp168
sL26763L
(F2.0
L4221056L
Vx2nrealloc
p169
tp170
sL6284L
(F128.0
L4200368L
Vmain
p171
tp172
sL8333L
(F38836.148148148146
L4200368L
Vmain
p173
tp174
sL22669L
(F281970.0168067227
L4214240L
Vquotearg_buffer_restyled
p175
tp176
sL20623L
(F155750.1920510589
L4214240L
Vquotearg_buffer_restyled
p177
tp178
sL10383L
(F3236.3456790123455
L4200368L
Vmain
p179
tp180
sL22672L
(F70492.50420168067
L4214240L
Vquotearg_buffer_restyled
p181
tp182
sL12432L
(F16.0
L4206704L
Vfilename_unescape
p183
tp184
sL18576L
(F1.0
L4212880L
Vfadvise
p185
tp186
sL22679L
(F30840.470588235294
L4214240L
Vquotearg_buffer_restyled
p187
tp188
sL20632L
(F77875.09602552945
L4214240L
Vquotearg_buffer_restyled
p189
tp190
sL18585L
(F2.0
L4212880L
Vfadvise
p191
tp192
sL10394L
(F9709.037037037036
L4200368L
Vmain
p193
tp194
sL12444L
(F32.0
L4206704L
Vfilename_unescape
p195
tp196
sL20636L
(F24724.643640047896
L4214240L
Vquotearg_buffer_restyled
p197
tp198
sL26783L
(F4.0
L4221056L
Vx2nrealloc
p199
tp200
sL12448L
(F64.0
L4206704L
Vfilename_unescape
p201
tp202
sL20640L
(F11225.50311546021
L4214240L
Vquotearg_buffer_restyled
p203
tp204
sL20647L
(F60945.727324327396
L4214240L
Vquotearg_buffer_restyled
p205
tp206
sL6312L
(F8.0
L4200368L
Vmain
p207
tp208
sL26794L
(F1.3333333333333333
L4221056L
Vx2nrealloc
p209
tp210
sL28845L
(F2.0
L4222736L
Vclose_stream
p211
tp212
sL10415L
(F19418.074074074073
L4200368L
Vmain
p213
tp214
sL12464L
(F3.0476190476190474
L4206704L
Vfilename_unescape
p215
tp216
sL14512L
(F1.0
L4208816L
Vmd5_read_ctx
p217
tp218
sL20656L
(F30472.863662163698
L4214240L
Vquotearg_buffer_restyled
p219
tp220
sL28849L
(F4.0
L4222736L
Vclose_stream
p221
tp222
sL6323L
(F16.0
L4200368L
Vmain
p223
tp224
sL6325L
(F32.0
L4200368L
Vmain
p225
tp226
sL12472L
(F8.0
L4206704L
Vfilename_unescape
p227
tp228
sL6330L
(F64.0
L4200368L
Vmain
p229
tp230
sL28859L
(F2.6666666666666665
L4222736L
Vclose_stream
p231
tp232
sL12478L
(F5.818181818181818
L4206704L
Vfilename_unescape
p233
tp234
sL8382L
(F77672.29629629629
L4200368L
Vmain
p235
tp236
sL10431L
(F6472.691358024691
L4200368L
Vmain
p237
tp238
sL26816L
(F2.0
L4221056L
Vx2nrealloc
p239
tp240
sL28864L
(F2.0
L4222736L
Vclose_stream
p241
tp242
sL6339L
(F128.0
L4200368L
Vmain
p243
tp244
sL20676L
(F15.995800643924703
L4214240L
Vquotearg_buffer_restyled
p245
tp246
sL28868L
(F4.0
L4222736L
Vclose_stream
p247
tp248
sL22725L
(F64.0
L4214240L
Vquotearg_buffer_restyled
p249
tp250
sL26821L
(F4.0
L4221056L
Vx2nrealloc
p251
tp252
sL18632L
(F4.0
L4212880L
Vfadvise
p253
tp254
sL10443L
(F9709.037037037036
L4200368L
Vmain
p255
tp256
sL12491L
(F14.222222222222221
L4206704L
Vfilename_unescape
p257
tp258
sL6352L
(F32.0
L4200368L
Vmain
p259
tp260
sL10448L
(F8630.255144032923
L4200368L
Vmain
p261
tp262
sL8402L
(F38836.148148148146
L4200368L
Vmain
p263
tp264
sL12499L
(F28.444444444444443
L4206704L
Vfilename_unescape
p265
tp266
sL20692L
(F15.997900046385697
L4214240L
Vquotearg_buffer_restyled
p267
tp268
sL6359L
(F64.0
L4200368L
Vmain
p269
tp270
sL12503L
(F1.7534246575342465
L4206704L
Vfilename_unescape
p271
tp272
sL18652L
(F2.0
L4212880L
Vfadvise
p273
tp274
sL26847L
(F4.0
L4221056L
Vx2nrealloc
p275
tp276
sL28896L
(F8.0
L4222736L
Vclose_stream
p277
tp278
sL12512L
(F32.0
L4206704L
Vfilename_unescape
p279
tp280
sL22754L
(F128.0
L4214240L
Vquotearg_buffer_restyled
p281
tp282
sL6370L
(F128.0
L4200368L
Vmain
p283
tp284
sL26853L
(F1.0
L4221168L
Vx2realloc
p285
tp286
sL14566L
(F2.0
L4208816L
Vmd5_read_ctx
p287
tp288
sL24806L
(F2.0
L4218992L
Vquotearg_n_custom_mem
p289
tp290
sL20712L
(F31.995800092771393
L4214240L
Vquotearg_buffer_restyled
p291
tp292
sL24811L
(F4.0
L4218992L
Vquotearg_n_custom_mem
p293
tp294
sL26864L
(F1.0
L4221168L
Vx2realloc
p295
tp296
sL12528L
(F1.0
L4206832L
Vprint_filename
p297
tp298
sL20721L
(F21.33053339518093
L4214240L
Vquotearg_buffer_restyled
p299
tp300
sL6385L
(F64.0
L4200368L
Vmain
p301
tp302
sL28920L
(F4.0
L4222736L
Vclose_stream
p303
tp304
sL26872L
(F2.0
L4221168L
Vx2realloc
p305
tp306
sL8440L
(F77672.29629629629
L4200368L
Vmain
p307
tp308
sL12537L
(F2.0
L4206832L
Vprint_filename
p309
tp310
sL14587L
(F1.0
L4208816L
Vmd5_read_ctx
p311
tp312
sL10492L
(F11949.584045584046
L4200368L
Vmain
p313
tp314
sL6397L
(F64.0
L4200368L
Vmain
p315
tp316
sL22783L
(F32.0
L4214240L
Vquotearg_buffer_restyled
p317
tp318
sL12544L
(F16.0
L4206832L
Vprint_filename
p319
tp320
sL18690L
(F4.0
L4212880L
Vfadvise
p321
tp322
sL20738L
(F42.66106679036186
L4214240L
Vquotearg_buffer_restyled
p323
tp324
sL10499L
(F31068.91851851852
L4200368L
Vmain
p325
tp326
sL6407L
(F64.0
L4200368L
Vmain
p327
tp328
sL26887L
(F4.0
L4221168L
Vx2realloc
p329
tp330
sL20745L
(F85.32213358072372
L4214240L
Vquotearg_buffer_restyled
p331
tp332
sL8461L
(F38836.148148148146
L4200368L
Vmain
p333
tp334
sL28944L
(F1.0
L4223248L
Vlocale_charset
p335
tp336
sL24851L
(F8.0
L4218992L
Vquotearg_n_custom_mem
p337
tp338
sL18710L
(F2.0
L4212880L
Vfadvise
p339
tp340
sL10520L
(F62137.83703703704
L4200368L
Vmain
p341
tp342
sL24856L
(F1.3333333333333333
L4218992L
Vquotearg_n_custom_mem
p343
tp344
sL12571L
(F4.0
L4206832L
Vprint_filename
p345
tp346
sL24861L
(F8.0
L4218992L
Vquotearg_n_custom_mem
p347
tp348
sL12575L
(F1.3333333333333333
L4206832L
Vprint_filename
p349
tp350
sL26912L
(F2.0
L4221168L
Vx2realloc
p351
tp352
sL22816L
(F32.0
L4214240L
Vquotearg_buffer_restyled
p353
tp354
sL20768L
(F56.881422387149144
L4214240L
Vquotearg_buffer_restyled
p355
tp356
sL6433L
(F32.0
L4200368L
Vmain
p357
tp358
sL10531L
(F31068.91851851852
L4200368L
Vmain
p359
tp360
sL8484L
(F77672.29629629629
L4200368L
Vmain
p361
tp362
sL20773L
(F170.64426716144743
L4214240L
Vquotearg_buffer_restyled
p363
tp364
sL12583L
(F4.0
L4206832L
Vprint_filename
p365
tp366
sL20776L
(F85.32213358072372
L4214240L
Vquotearg_buffer_restyled
p367
tp368
sL8489L
(F155344.59259259258
L4200368L
Vmain
p369
tp370
sL6444L
(F64.0
L4200368L
Vmain
p371
tp372
sL12589L
(F8.0
L4206832L
Vprint_filename
p373
tp374
sL8496L
(F29589.446208112873
L4200368L
Vmain
p375
tp376
sL14641L
(F2.0
L4208816L
Vmd5_read_ctx
p377
tp378
sL12595L
(F16.0
L4206832L
Vprint_filename
p379
tp380
sL20788L
(F24.377752451635345
L4214240L
Vquotearg_buffer_restyled
p381
tp382
sL26935L
(F4.0
L4221168L
Vx2realloc
p383
tp384
sL10552L
(F124275.67407407408
L4200368L
Vmain
p385
tp386
sL18749L
(F4.0
L4212880L
Vfadvise
p387
tp388
sL8510L
(F103563.06172839506
L4200368L
Vmain
p389
tp390
sL20802L
(F48.75550490327069
L4214240L
Vquotearg_buffer_restyled
p391
tp392
sL8515L
(F88768.33862433862
L4200368L
Vmain
p393
tp394
sL12612L
(F32.0
L4206832L
Vprint_filename
p395
tp396
sL22852L
(F34.68752876813453
L4214240L
Vquotearg_buffer_restyled
p397
tp398
sL14661L
(F1.0
L4208816L
Vmd5_read_ctx
p399
tp400
sL10567L
(F62137.83703703704
L4200368L
Vmain
p401
tp402
sL22857L
(F1.0
L4217168L
Vquotearg_n_options
p403
tp404
sL8527L
(F88768.33862433862
L4200368L
Vmain
p405
tp406
sL20816L
(F32768.0
L4214240L
Vquotearg_buffer_restyled
p407
tp408
sL22864L
(F1.0
L4217168L
Vquotearg_n_options
p409
tp410
sL18769L
(F2.0
L4212880L
Vfadvise
p411
tp412
sL10579L
(F69042.04115226338
L4200368L
Vmain
p413
tp414
sL12632L
(F8.0
L4206832L
Vprint_filename
p415
tp416
sL29017L
(F2.0
L4223248L
Vlocale_charset
p417
tp418
sL29024L
(F10.666666666666666
L4223248L
Vlocale_charset
p419
tp420
sL26976L
(F1.0
L4221280L
Vxcalloc
p421
tp422
sL20833L
(F32768.0
L4214240L
Vquotearg_buffer_restyled
p423
tp424
sL6501L
(F16.0
L4200368L
Vmain
p425
tp426
sL8552L
(F355073.3544973545
L4200368L
Vmain
p427
tp428
sL10600L
(F138084.08230452676
L4200368L
Vmain
p429
tp430
sL20841L
(F26214.4
L4214240L
Vquotearg_buffer_restyled
p431
tp432
sL26990L
(F2.0
L4221280L
Vxcalloc
p433
tp434
sL20850L
(F20164.923076923078
L4214240L
Vquotearg_buffer_restyled
p435
tp436
sL10611L
(F2339.3045242477724
L4200368L
Vmain
p437
tp438
sL26995L
(F2.0
L4221280L
Vxcalloc
p439
tp440
sL12664L
(F4.0
L4206832L
Vprint_filename
p441
tp442
sL29050L
(F1.2192092050890302
L4223248L
Vlocale_charset
p443
tp444
sL8571L
(F355073.3544973545
L4200368L
Vmain
p445
tp446
sL14717L
(F2.0
L4208816L
Vmd5_read_ctx
p447
tp448
sL20861L
(F24966.095238095237
L4214240L
Vquotearg_buffer_restyled
p449
tp450
sL6527L
(F16.0
L4200368L
Vmain
p451
tp452
sL12672L
(F32.0
L4206832L
Vprint_filename
p453
tp454
sL29059L
(F4.0
L4223248L
Vlocale_charset
p455
tp456
sL8580L
(F1420293.417989418
L4200368L
Vmain
p457
tp458
sL6534L
(F1.7777777777777777
L4200368L
Vmain
p459
tp460
sL8584L
(F284058.6835978836
L4200368L
Vmain
p461
tp462
sL20872L
(F49932.19047619047
L4214240L
Vquotearg_buffer_restyled
p463
tp464
sL22922L
(F2.0
L4217168L
Vquotearg_n_options
p465
tp466
sL10636L
(F537.1469454061138
L4200368L
Vmain
p467
tp468
sL18831L
(F4.0
L4212880L
Vfadvise
p469
tp470
sL12688L
(F2.0
L4206832L
Vprint_filename
p471
tp472
sL20880L
(F927.4592424446587
L4214240L
Vquotearg_buffer_restyled
p473
tp474
sL14737L
(F1.0
L4208816L
Vmd5_read_ctx
p475
tp476
sL29074L
(F8.0
L4223248L
Vlocale_charset
p477
tp478
sL22931L
(F4.0
L4217168L
Vquotearg_n_options
p479
tp480
sL20886L
(F59.975959664903456
L4214240L
Vquotearg_buffer_restyled
p481
tp482
sL29080L
(F16.0
L4223248L
Vlocale_charset
p483
tp484
sL10649L
(F1072.208445908129
L4200368L
Vmain
p485
tp486
sL29087L
(F6.4
L4223248L
Vlocale_charset
p487
tp488
sL18852L
(F2.0
L4212880L
Vfadvise
p489
tp490
sL6564L
(F2.3703703703703702
L4200368L
Vmain
p491
tp492
sL8616L
(F2840586.835978836
L4200368L
Vmain
p493
tp494
sL6571L
(F7.111111111111111
L4200368L
Vmain
p495
tp496
sL29100L
(F2.4615384615384617
L4223248L
Vlocale_charset
p497
tp498
sL22958L
(F8.0
L4217168L
Vquotearg_n_options
p499
tp500
sL12720L
(F1.0
L4207024L
Vlava_get
p501
tp502
sL10683L
(F1104672.658436214
L4200368L
Vmain
p503
tp504
sL6588L
(F2.407995296884186
L4200368L
Vmain
p505
tp506
sL18880L
(F2.0
L4212880L
Vfadvise
p507
tp508
sL12741L
(F2.0
L4207024L
Vlava_get
p509
tp510
sL14792L
(F2.0
L4208816L
Vmd5_read_ctx
p511
tp512
sL22986L
(F4.0
L4217168L
Vquotearg_n_options
p513
tp514
sL12747L
(F4.0
L4207024L
Vlava_get
p515
tp516
sL8653L
(F5681173.671957672
L4200368L
Vmain
p517
tp518
sL10701L
(F38755.81466428734
L4200368L
Vmain
p519
tp520
sL20942L
(F17.343764384067264
L4214240L
Vquotearg_buffer_restyled
p521
tp522
sL12752L
(F1.3333333333333333
L4207024L
Vlava_get
p523
tp524
sL18896L
(F1.0
L4213200L
Vfopen_safer
p525
tp526
sL6609L
(F9.142857142857142
L4200368L
Vmain
p527
tp528
sL29138L
(F4.923076923076923
L4223248L
Vlocale_charset
p529
tp530
sL10709L
(F7764.01096396683
L4200368L
Vmain
p531
tp532
sL6619L
(F2.782608695652174
L4200368L
Vmain
p533
tp534
sL14812L
(F1.0
L4208816L
Vmd5_read_ctx
p535
tp536
sL8672L
(F11362347.343915343
L4200368L
Vmain
p537
tp538
sL18912L
(F2.0
L4213200L
Vfopen_safer
p539
tp540
sL6626L
(F4.7407407407407405
L4200368L
Vmain
p541
tp542
sL29156L
(F2.0
L4223248L
Vlocale_charset
p543
tp544
sL20965L
(F34.68752876813453
L4214240L
Vquotearg_buffer_restyled
p545
tp546
sL23020L
(F2.6666666666666665
L4217168L
Vquotearg_n_options
p547
tp548
sL16878L
(F4.0
L4209152L
Vmd5_process_block
p549
tp550
sL8688L
(F22724694.687830687
L4200368L
Vmain
p551
tp552
sL10736L
(F15528.02192793366
L4200368L
Vmain
p553
tp554
sL16883L
(F1.3333333333333333
L4209152L
Vmd5_process_block
p555
tp556
sL29174L
(F4.0
L4223248L
Vlocale_charset
p557
tp558
sL6649L
(F9.481481481481481
L4200368L
Vmain
p559
tp560
sL8698L
(F9089877.875132276
L4200368L
Vmain
p561
tp562
sL10747L
(F20704.02923724488
L4200368L
Vmain
p563
tp564
sL29179L
(F2.6666666666666665
L4223248L
Vlocale_charset
p565
tp566
sL12800L
(F1.0
L4207104L
Vdigest_file
p567
tp568
sL14848L
(F1.0
L4209152L
Vmd5_process_block
p569
tp570
sL20992L
(F32768.0
L4214240L
Vquotearg_buffer_restyled
p571
tp572
sL25088L
(F1.0
L4219392L
Vversion_etc_arn
p573
tp574
sL27137L
(F1.0
L4221456L
Vrpl_fclose
p575
tp576
sL20997L
(F8738.133333333333
L4214240L
Vquotearg_buffer_restyled
p577
tp578
sL10759L
(F62112.08771173464
L4200368L
Vmain
p579
tp580
sL8712L
(F18179755.75026455
L4200368L
Vmain
p581
tp582
sL21004L
(F65536.0
L4214240L
Vquotearg_buffer_restyled
p583
tp584
sL29196L
(F2.2857142857142856
L4223248L
Vlocale_charset
p585
tp586
sL27152L
(F1.0
L4221456L
Vrpl_fclose
p587
tp588
sL6672L
(F18.962962962962962
L4200368L
Vmain
p589
tp590
sL8722L
(F8263525.341029341
L4200368L
Vmain
p591
tp592
sL10772L
(F124224.17542346928
L4200368L
Vmain
p593
tp594
sL21015L
(F5349.877551020408
L4214240L
Vquotearg_buffer_restyled
p595
tp596
sL29207L
(F5.333333333333333
L4223248L
Vlocale_charset
p597
tp598
sL12830L
(F2.0
L4207104L
Vdigest_file
p599
tp600
sL10784L
(F124224.17542346928
L4200368L
Vmain
p601
tp602
sL16928L
(F1.0
L4211232L
Vmd5_finish_ctx
p603
tp604
sL21024L
(F87381.33333333333
L4214240L
Vquotearg_buffer_restyled
p605
tp606
sL25120L
(F2.0
L4219392L
Vversion_etc_arn
p607
tp608
sL6695L
(F37.925925925925924
L4200368L
Vmain
p609
tp610
sL8743L
(F36359511.5005291
L4200368L
Vmain
p611
tp612
sL10796L
(F496896.7016938771
L4200368L
Vmain
p613
tp614
sL12845L
(F4.0
L4207104L
Vdigest_file
p615
tp616
sL21040L
(F32768.0
L4214240L
Vquotearg_buffer_restyled
p617
tp618
sL29232L
(F10.666666666666666
L4223248L
Vlocale_charset
p619
tp620
sL18996L
(F4.0
L4213200L
Vfopen_safer
p621
tp622
sL8760L
(F391699.55831434525
L4200368L
Vmain
p623
tp624
sL10808L
(F331264.46779591806
L4200368L
Vmain
p625
tp626
sL27193L
(F2.0
L4221456L
Vrpl_fclose
p627
tp628
sL25146L
(F1.0
L4219392L
Vversion_etc_arn
p629
tp630
sL12859L
(F1.6
L4207104L
Vdigest_file
p631
tp632
sL21056L
(F32768.0
L4214240L
Vquotearg_buffer_restyled
p633
tp634
sL23105L
(F5.333333333333333
L4217168L
Vquotearg_n_options
p635
tp636
sL6722L
(F75.85185185185185
L4200368L
Vmain
p637
tp638
sL8773L
(F5269494.420366536
L4200368L
Vmain
p639
tp640
sL29254L
(F8.0
L4223248L
Vlocale_charset
p641
tp642
sL10828L
(F35492.621549562646
L4200368L
Vmain
p643
tp644
sL27213L
(F1.0
L4221456L
Vrpl_fclose
p645
tp646
sL10831L
(F2490.2565503337983
L4200368L
Vmain
p647
tp648
sL21072L
(F32768.0
L4214240L
Vquotearg_buffer_restyled
p649
tp650
sL23121L
(F10.666666666666666
L4217168L
Vquotearg_n_options
p651
tp652
sL8789L
(F2634747.210183268
L4200368L
Vmain
p653
tp654
sL10840L
(F192712938.80197617
L4200368L
Vmain
p655
tp656
sL29274L
(F16.0
L4223248L
Vlocale_charset
p657
tp658
sL8794L
(F5269494.420366536
L4200368L
Vmain
p659
tp660
sL19035L
(F2.0
L4213200L
Vfopen_safer
p661
tp662
sL6749L
(F151.7037037037037
L4200368L
Vmain
p663
tp664
sL12893L
(F8.0
L4207104L
Vdigest_file
p665
tp666
sL29279L
(F4.0
L4223248L
Vlocale_charset
p667
tp668
sL21088L
(F16384.0
L4214240L
Vquotearg_buffer_restyled
p669
tp670
sL23139L
(F5.333333333333333
L4217168L
Vquotearg_n_options
p671
tp672
sL10856L
(F385425877.60395235
L4200368L
Vmain
p673
tp674
sL14952L
(F2.0
L4209152L
Vmd5_process_block
p675
tp676
sL21097L
(F32768.0
L4214240L
Vquotearg_buffer_restyled
p677
tp678
sL27246L
(F2.0
L4221456L
Vrpl_fclose
p679
tp680
sL29296L
(F8.0
L4223248L
Vlocale_charset
p681
tp682
sL14960L
(F1.3333333333333333
L4209152L
Vmd5_process_block
p683
tp684
sL12913L
(F4.0
L4207104L
Vdigest_file
p685
tp686
sL19059L
(F1.0
L4213200L
Vfopen_safer
p687
tp688
sL21108L
(F65536.0
L4214240L
Vquotearg_buffer_restyled
p689
tp690
sL8821L
(F2634747.210183268
L4200368L
Vmain
p691
tp692
sL17015L
(F2.0
L4211232L
Vmd5_finish_ctx
p693
tp694
sL6776L
(F151.7037037037037
L4200368L
Vmain
p695
tp696
sL10872L
(F770851755.2079047
L4200368L
Vmain
p697
tp698
sL19066L
(F8.0
L4213200L
Vfopen_safer
p699
tp700
sL21115L
(F131072.0
L4214240L
Vquotearg_buffer_restyled
p701
tp702
sL27259L
(F4.0
L4221456L
Vrpl_fclose
p703
tp704
sL17020L
(F1.0
L4211232L
Vmd5_finish_ctx
p705
tp706
sL29313L
(F4.571428571428571
L4223248L
Vlocale_charset
p707
tp708
sL6786L
(F606.8148148148148
L4200368L
Vmain
p709
tp710
sL8834L
(F5269494.420366536
L4200368L
Vmain
p711
tp712
sL21124L
(F65536.0
L4214240L
Vquotearg_buffer_restyled
p713
tp714
sL10892L
(F1541703510.4158094
L4200368L
Vmain
p715
tp716
sL25230L
(F4.0
L4219392L
Vversion_etc_arn
p717
tp718
sL21137L
(F131072.0
L4214240L
Vquotearg_buffer_restyled
p719
tp720
sL10905L
(F342600780.0924021
L4200368L
Vmain
p721
tp722
sL8860L
(F2634747.210183268
L4200368L
Vmain
p723
tp724
sL19100L
(F16.0
L4213200L
Vfopen_safer
p725
tp726
sL27293L
(F8.0
L4221456L
Vrpl_fclose
p727
tp728
sL21151L
(F262144.0
L4214240L
Vquotearg_buffer_restyled
p729
tp730
sL25248L
(F44.0
L4219392L
Vversion_etc_arn
p731
tp732
sL12960L
(F8.0
L4207104L
Vdigest_file
p733
tp734
sL6816L
(F605.4844047457933
L4200368L
Vmain
p735
tp736
sL8864L
(F5269494.420366536
L4200368L
Vmain
p737
tp738
sL12965L
(F10.666666666666666
L4207104L
Vdigest_file
p739
tp740
sL23205L
(F2.6666666666666665
L4217168L
Vquotearg_n_options
p741
tp742
sL12970L
(F6.4
L4207104L
Vdigest_file
p743
tp744
sL21162L
(F262144.0
L4214240L
Vquotearg_buffer_restyled
p745
tp746
sL8876L
(F10538988.840733072
L4200368L
Vmain
p747
tp748
sL19120L
(F8.0
L4213200L
Vfopen_safer
p749
tp750
sL27313L
(F4.0
L4221456L
Vrpl_fclose
p751
tp752
sL8883L
(F21077977.681466144
L4200368L
Vmain
p753
tp754
sL21173L
(F1048576.0
L4214240L
Vquotearg_buffer_restyled
p755
tp756
sL12984L
(F2.0
L4207104L
Vdigest_file
p757
tp758
sL8890L
(F42155955.36293229
L4200368L
Vmain
p759
tp760
sL10938L
(F474370310.89717215
L4200368L
Vmain
p761
tp762
sL6843L
(F1213.6296296296296
L4200368L
Vmain
p763
tp764
sL12987L
(F1.3333333333333333
L4207104L
Vdigest_file
p765
tp766
sL29373L
(F9.142857142857142
L4223248L
Vlocale_charset
p767
tp768
sL21183L
(F524288.0
L4214240L
Vquotearg_buffer_restyled
p769
tp770
sL8896L
(F4087850.217011616
L4200368L
Vmain
p771
tp772
sL23232L
(F8.0
L4217168L
Vquotearg_n_options
p773
tp774
sL10947L
(F1541703510.4158094
L4200368L
Vmain
p775
tp776
sL17093L
(F4.0
L4211232L
Vmd5_finish_ctx
p777
tp778
sL21192L
(F74898.28571428571
L4214240L
Vquotearg_buffer_restyled
p779
tp780
sL19151L
(F1.620253164556962
L4213200L
Vfopen_safer
p781
tp782
sL6866L
(F2427.259259259259
L4200368L
Vmain
p783
tp784
sL8915L
(F4365665.280303667
L4200368L
Vmain
p785
tp786
sL13012L
(F2.6666666666666665
L4207104L
Vdigest_file
p787
tp788
sL29397L
(F18.285714285714285
L4223248L
Vlocale_charset
p789
tp790
sL10966L
(F3083407020.831619
L4200368L
Vmain
p791
tp792
sL8921L
(F19328.996469377642
L4200368L
Vmain
p793
tp794
sL17113L
(F2.0
L4211232L
Vmd5_finish_ctx
p795
tp796
sL10976L
(F880973434.5233197
L4200368L
Vmain
p797
tp798
sL19168L
(F16.0
L4213200L
Vfopen_safer
p799
tp800
sL21216L
(F32768.0
L4214240L
Vquotearg_buffer_restyled
p801
tp802
sL29408L
(F11.301989695833063
L4223248L
Vlocale_charset
p803
tp804
sL6882L
(F4854.518518518518
L4200368L
Vmain
p805
tp806
sL25314L
(F22.0
L4219392L
Vversion_etc_arn
p807
tp808
sL8935L
(F38755.81466428734
L4200368L
Vmain
p809
tp810
sL13034L
(F2.4615384615384617
L4207104L
Vdigest_file
p811
tp812
sL27372L
(F8.0
L4221456L
Vrpl_fclose
p813
tp814
sL29422L
(F26.5596757852077
L4223248L
Vlocale_charset
p815
tp816
sL21232L
(F32768.0
L4214240L
Vquotearg_buffer_restyled
p817
tp818
sL19185L
(F32.0
L4213200L
Vfopen_safer
p819
tp820
sL8947L
(F77511.62932857468
L4200368L
Vmain
p821
tp822
sL23285L
(F2.0
L4217168L
Vquotearg_n_options
p823
tp824
sL29433L
(F19.47433325904465
L4223248L
Vlocale_charset
p825
tp826
sL19197L
(F64.0
L4213200L
Vfopen_safer
p827
tp828
sL21248L
(F32768.0
L4214240L
Vquotearg_buffer_restyled
p829
tp830
sL27393L
(F4.0
L4221456L
Vrpl_fclose
p831
tp832
sL29441L
(F73.14285714285714
L4223248L
Vlocale_charset
p833
tp834
sL11011L
(F1618.1728395061727
L4200368L
Vmain
p835
tp836
sL29446L
(F146.28571428571428
L4223248L
Vlocale_charset
p837
tp838
sL6923L
(F1941.8074074074075
L4200368L
Vmain
p839
tp840
sL19212L
(F128.0
L4213200L
Vfopen_safer
p841
tp842
sL29455L
(F292.57142857142856
L4223248L
Vlocale_charset
p843
tp844
sL13072L
(F16.0
L4207104L
Vdigest_file
p845
tp846
sL21264L
(F32768.0
L4214240L
Vquotearg_buffer_restyled
p847
tp848
sL21271L
(F65536.0
L4214240L
Vquotearg_buffer_restyled
p849
tp850
sL27417L
(F2.6666666666666665
L4221456L
Vrpl_fclose
p851
tp852
sL13084L
(F32.0
L4207104L
Vdigest_file
p853
tp854
sL21279L
(F43690.666666666664
L4214240L
Vquotearg_buffer_restyled
p855
tp856
sL8992L
(F355073.3544973545
L4200368L
Vmain
p857
tp858
sL11040L
(F3076.067416617995
L4200368L
Vmain
p859
tp860
sL13088L
(F8.0
L4207104L
Vdigest_file
p861
tp862
sL19232L
(F2.0
L4213200L
Vfopen_safer
p863
tp864
sL27429L
(F5.333333333333333
L4221456L
Vrpl_fclose
p865
tp866
sL17190L
(F4.0
L4211232L
Vmd5_finish_ctx
p867
tp868
sL25384L
(F44.0
L4219392L
Vversion_etc_arn
p869
tp870
sL9008L
(F6022279.337561755
L4200368L
Vmain
p871
tp872
sL21296L
(F32768.0
L4214240L
Vquotearg_buffer_restyled
p873
tp874
sL9013L
(F12044558.67512351
L4200368L
Vmain
p875
tp876
sL29497L
(F585.1428571428571
L4223248L
Vlocale_charset
p877
tp878
sL17210L
(F2.0
L4211232L
Vmd5_finish_ctx
p879
tp880
sL21307L
(F65536.0
L4214240L
Vquotearg_buffer_restyled
p881
tp882
sL19261L
(F4.0
L4213200L
Vfopen_safer
p883
tp884
sL27453L
(F5.333333333333333
L4221456L
Vrpl_fclose
p885
tp886
sL29502L
(F390.0952380952381
L4223248L
Vlocale_charset
p887
tp888
sL11073L
(F2427.259259259259
L4200368L
Vmain
p889
tp890
sL21318L
(F131072.0
L4214240L
Vquotearg_buffer_restyled
p891
tp892
sL13127L
(F16.0
L4207104L
Vdigest_file
p893
tp894
sL27464L
(F3.2
L4221456L
Vrpl_fclose
p895
tp896
sL11083L
(F1420293.417989418
L4200368L
Vmain
p897
tp898
sL27467L
(F1.2307692307692308
L4221456L
Vrpl_fclose
p899
tp900
sL21325L
(F262144.0
L4214240L
Vquotearg_buffer_restyled
p901
tp902
sL19280L
(F4.0
L4213200L
Vfopen_safer
p903
tp904
sL29525L
(F1170.2857142857142
L4223248L
Vlocale_charset
p905
tp906
sL9046L
(F6022279.337561755
L4200368L
Vmain
p907
tp908
sL21334L
(F131072.0
L4214240L
Vquotearg_buffer_restyled
p909
tp910
sL27480L
(F10.666666666666666
L4221456L
Vrpl_fclose
p911
tp912
sL13152L
(F1.0
L4207456L
Vusage
p913
tp914
sL7008L
(F1849.1578663403693
L4200368L
Vmain
p915
tp916
sL21345L
(F262144.0
L4214240L
Vquotearg_buffer_restyled
p917
tp918
sL11109L
(F2840586.835978836
L4200368L
Vmain
p919
tp920
sL17256L
(F2.0
L4211232L
Vmd5_finish_ctx
p921
tp922
sL19304L
(F42.666666666666664
L4213200L
Vfopen_safer
p923
tp924
sL25448L
(F3.384615384615385
L4219392L
Vversion_etc_arn
p925
tp926
sL21355L
(F131072.0
L4214240L
Vquotearg_buffer_restyled
p927
tp928
sL27504L
(F1.0
L4221808L
Vrpl_fcntl
p929
tp930
sL7025L
(F9709.037037037036
L4200368L
Vmain
p931
tp932
sL11123L
(F5681173.671957672
L4200368L
Vmain
p933
tp934
sL21366L
(F262144.0
L4214240L
Vquotearg_buffer_restyled
p935
tp936
sL9081L
(F12044558.67512351
L4200368L
Vmain
p937
tp938
sL11131L
(F11362347.343915343
L4200368L
Vmain
p939
tp940
sL29567L
(F780.1904761904761
L4223248L
Vlocale_charset
p941
tp942
sL11136L
(F22724694.687830687
L4200368L
Vmain
p943
tp944
sL17280L
(F1.0
L4211584L
Vmd5_process_bytes
p945
tp946
sL21376L
(F131072.0
L4214240L
Vquotearg_buffer_restyled
p947
tp948
sL25472L
(F22.0
L4219392L
Vversion_etc_arn
p949
tp950
sL19336L
(F32.0
L4213200L
Vfopen_safer
p951
tp952
sL25480L
(F44.0
L4219392L
Vversion_etc_arn
p953
tp954
sL13194L
(F2.0
L4207456L
Vusage
p955
tp956
sL11147L
(F9089877.875132276
L4200368L
Vmain
p957
tp958
sL9101L
(F6022279.337561755
L4200368L
Vmain
p959
tp960
sL21392L
(F1927.5294117647059
L4214240L
Vquotearg_buffer_restyled
p961
tp962
sL11153L
(F4544938.937566138
L4200368L
Vmain
p963
tp964
sL29592L
(F2340.5714285714284
L4223248L
Vlocale_charset
p965
tp966
sL21404L
(F3855.0588235294117
L4214240L
Vquotearg_buffer_restyled
p967
tp968
sL11165L
(F9089877.875132276
L4200368L
Vmain
p969
tp970
sL17314L
(F1.3333333333333333
L4211584L
Vmd5_process_bytes
p971
tp972
sL11171L
(F5049932.152851264
L4200368L
Vmain
p973
tp974
sL19366L
(F4.0
L4213200L
Vfopen_safer
p975
tp976
sL17324L
(F4.0
L4211584L
Vmd5_process_bytes
p977
tp978
sL13231L
(F1.8285714285714285
L4207456L
Vusage
p979
tp980
sL5040L
(F1.0
L4199344L
V_init
p981
tp982
sL11188L
(F7904241.630549804
L4200368L
Vmain
p983
tp984
sL17334L
(F8.0
L4211584L
Vmd5_process_bytes
p985
tp986
sL13238L
(F2.0
L4207456L
Vusage
p987
tp988
sL9143L
(F12044558.67512351
L4200368L
Vmain
p989
tp990
sL27575L
(F2.0
L4221808L
Vrpl_fcntl
p991
tp992
sL11197L
(F36359511.5005291
L4200368L
Vmain
p993
tp994
sL5056L
(F2.0
L4199344L
V_init
p995
tp996
sL23488L
(F1.0
L4217792L
Vset_custom_quoting
p997
tp998
sL25536L
(F44.0
L4219392L
Vversion_etc_arn
p999
tp1000
sL11201L
(F6492769.910808768
L4200368L
Vmain
p1001
tp1002
sL5061L
(F1.0
L4199344L
V_init
p1003
tp1004
sL17354L
(F16.0
L4211584L
Vmd5_process_bytes
p1005
tp1006
sL9165L
(F6022279.337561755
L4200368L
Vmain
p1007
tp1008
sL21455L
(F3383.3985303570753
L4214240L
Vquotearg_buffer_restyled
p1009
tp1010
sL27599L
(F4.0
L4221808L
Vrpl_fcntl
p1011
tp1012
sL17360L
(F10.666666666666666
L4211584L
Vmd5_process_bytes
p1013
tp1014
sL19408L
(F1.0
L4213712L
Vset_program_name
p1015
tp1016
sL29649L
(F4681.142857142857
L4223248L
Vlocale_charset
p1017
tp1018
sL11220L
(F36359511.5005291
L4200368L
Vmain
p1019
tp1020
sL19414L
(F2.0
L4213712L
Vset_program_name
p1021
tp1022
sL21464L
(F5436.502303727481
L4214240L
Vquotearg_buffer_restyled
p1023
tp1024
sL23515L
(F2.0
L4217792L
Vset_custom_quoting
p1025
tp1026
sL11230L
(F72719023.0010582
L4200368L
Vmain
p1027
tp1028
sL23520L
(F4.0
L4217792L
Vset_custom_quoting
p1029
tp1030
sL27616L
(F5.333333333333333
L4221808L
Vrpl_fcntl
p1031
tp1032
sL11235L
(F41553727.429176114
L4200368L
Vmain
p1033
tp1034
sL19432L
(F4.0
L4213712L
Vset_program_name
p1035
tp1036
sL29674L
(F2340.5714285714284
L4223248L
Vlocale_charset
p1037
tp1038
sL23533L
(F1.3333333333333333
L4217792L
Vset_custom_quoting
p1039
tp1040
sL21488L
(F15420.235294117647
L4214240L
Vquotearg_buffer_restyled
p1041
tp1042
sL27632L
(F2.0
L4221808L
Vrpl_fcntl
p1043
tp1044
sL11250L
(F145438046.0021164
L4200368L
Vmain
p1045
tp1046
sL29683L
(F9362.285714285714
L4223248L
Vlocale_charset
p1047
tp1048
sL11255L
(F290876092.0042328
L4200368L
Vmain
p1049
tp1050
sL19448L
(F8.0
L4213712L
Vset_program_name
p1051
tp1052
sL9208L
(F12044558.67512351
L4200368L
Vmain
p1053
tp1054
sL21497L
(F30840.470588235294
L4214240L
Vquotearg_buffer_restyled
p1055
tp1056
sL7165L
(F4854.518518518518
L4200368L
Vmain
p1057
tp1058
sL21502L
(F61680.94117647059
L4214240L
Vquotearg_buffer_restyled
p1059
tp1060
sL25600L
(F44.0
L4219392L
Vversion_etc_arn
p1061
tp1062
sL21506L
(F30840.470588235294
L4214240L
Vquotearg_buffer_restyled
p1063
tp1064
sL27650L
(F1.032258064516129
L4221808L
Vrpl_fcntl
p1065
tp1066
sL19466L
(F16.0
L4213712L
Vset_program_name
p1067
tp1068
sL21515L
(F61680.94117647059
L4214240L
Vquotearg_buffer_restyled
p1069
tp1070
sL11276L
(F124224.17542346928
L4200368L
Vmain
p1071
tp1072
sL9230L
(F6022279.337561755
L4200368L
Vmain
p1073
tp1074
sL11288L
(F248448.35084693856
L4200368L
Vmain
p1075
tp1076
sL21528L
(F30840.470588235294
L4214240L
Vquotearg_buffer_restyled
p1077
tp1078
sL27672L
(F3.2
L4221808L
Vrpl_fcntl
p1079
tp1080
sL7199L
(F9709.037037037036
L4200368L
Vmain
p1081
tp1082
sL21537L
(F61680.94117647059
L4214240L
Vquotearg_buffer_restyled
p1083
tp1084
sL11300L
(F496896.7016938771
L4200368L
Vmain
p1085
tp1086
sL19496L
(F32.0
L4213712L
Vset_program_name
p1087
tp1088
sL27688L
(F4.0
L4221808L
Vrpl_fcntl
p1089
tp1090
sL11305L
(F31056.04385586732
L4200368L
Vmain
p1091
tp1092
sL17453L
(F32.0
L4211584L
Vmd5_process_bytes
p1093
tp1094
sL21553L
(F30840.470588235294
L4214240L
Vquotearg_buffer_restyled
p1095
tp1096
sL7219L
(F4854.518518518518
L4200368L
Vmain
p1097
tp1098
sL19507L
(F2.0
L4213712L
Vset_program_name
p1099
tp1100
sL27703L
(F8.0
L4221808L
Vrpl_fcntl
p1101
tp1102
sL9273L
(F12044558.67512351
L4200368L
Vmain
p1103
tp1104
sL11323L
(F62112.08771173464
L4200368L
Vmain
p1105
tp1106
sL29756L
(F36.50013923698134
L4223248L
Vlocale_charset
p1107
tp1108
sL21565L
(F10280.156862745098
L4214240L
Vquotearg_buffer_restyled
p1109
tp1110
sL11328L
(F62112.08771173464
L4200368L
Vmain
p1111
tp1112
sL27712L
(F10.666666666666666
L4221808L
Vrpl_fcntl
p1113
tp1114
sL19523L
(F2.0
L4213712L
Vset_program_name
p1115
tp1116
sL25672L
(F44.0
L4219392L
Vversion_etc_arn
p1117
tp1118
sL21578L
(F20560.313725490196
L4214240L
Vquotearg_buffer_restyled
p1119
tp1120
sL17484L
(F3.5555555555555554
L4211584L
Vmd5_process_bytes
p1121
tp1122
sL9295L
(F6022279.337561755
L4200368L
Vmain
p1123
tp1124
sL21583L
(F41120.62745098039
L4214240L
Vquotearg_buffer_restyled
p1125
tp1126
sL29775L
(F59.91862857142857
L4223248L
Vlocale_charset
p1127
tp1128
sL27730L
(F32.0
L4221808L
Vrpl_fcntl
p1129
tp1130
sL21587L
(F20560.313725490196
L4214240L
Vquotearg_buffer_restyled
p1131
tp1132
sL7256L
(F9709.037037037036
L4200368L
Vmain
p1133
tp1134
sL21596L
(F4299.610875745805
L4214240L
Vquotearg_buffer_restyled
p1135
tp1136
sL29792L
(F129.8063877197326
L4223248L
Vlocale_charset
p1137
tp1138
sL21601L
(F15420.235294117647
L4214240L
Vquotearg_buffer_restyled
p1139
tp1140
sL19555L
(F1.0
L4213872L
Vquoting_options_from_style
p1141
tp1142
sL29797L
(F5.568645778013808
L4223248L
Vlocale_charset
p1143
tp1144
sL21606L
(F30840.470588235294
L4214240L
Vquotearg_buffer_restyled
p1145
tp1146
sL27754L
(F21.333333333333332
L4221808L
Vrpl_fcntl
p1147
tp1148
sL21611L
(F61680.94117647059
L4214240L
Vquotearg_buffer_restyled
p1149
tp1150
sL7276L
(F4854.518518518518
L4200368L
Vmain
p1151
tp1152
sL25708L
(F22.0
L4219392L
Vversion_etc_arn
p1153
tp1154
sL11375L
(F15528.02192793366
L4200368L
Vmain
p1155
tp1156
sL21615L
(F30840.470588235294
L4214240L
Vquotearg_buffer_restyled
p1157
tp1158
sL19568L
(F1.0
L4213872L
Vquoting_options_from_style
p1159
tp1160
sL29808L
(F585.1428571428571
L4223248L
Vlocale_charset
p1161
tp1162
sL17523L
(F21.333333333333332
L4211584L
Vmd5_process_bytes
p1163
tp1164
sL9338L
(F12044558.67512351
L4200368L
Vmain
p1165
tp1166
sL29819L
(F292.57142857142856
L4223248L
Vlocale_charset
p1167
tp1168
sL21632L
(F16.0
L4214240L
Vquotearg_buffer_restyled
p1169
tp1170
sL23680L
(F1.0
L4217984L
Vquotearg_alloc_mem
p1171
tp1172
sL29824L
(F585.1428571428571
L4223248L
Vlocale_charset
p1173
tp1174
sL29829L
(F234.05714285714285
L4223248L
Vlocale_charset
p1175
tp1176
sL17543L
(F10.666666666666666
L4211584L
Vmd5_process_bytes
p1177
tp1178
sL21640L
(F32.0
L4214240L
Vquotearg_buffer_restyled
p1179
tp1180
sL29839L
(F585.1428571428571
L4223248L
Vlocale_charset
p1181
tp1182
sL21648L
(F64.0
L4214240L
Vquotearg_buffer_restyled
p1183
tp1184
sL9360L
(F6022279.337561755
L4200368L
Vmain
p1185
tp1186
sL27792L
(F8.0
L4221808L
Vrpl_fcntl
p1187
tp1188
sL7316L
(F9709.037037037036
L4200368L
Vmain
p1189
tp1190
sL19607L
(F2.0
L4213872L
Vquoting_options_from_style
p1191
tp1192
sL21656L
(F32.0
L4214240L
Vquotearg_buffer_restyled
p1193
tp1194
sL29849L
(F4.571428571428571
L4223248L
Vlocale_charset
p1195
tp1196
sL11418L
(F251706695.57809135
L4200368L
Vmain
p1197
tp1198
sL27806L
(F16.0
L4221808L
Vrpl_fcntl
p1199
tp1200
sL29855L
(F4.4159121345607995
L4223248L
Vlocale_charset
p1201
tp1202
sL25760L
(F44.0
L4219392L
Vversion_etc_arn
p1203
tp1204
sL11431L
(F616681404.1663238
L4200368L
Vmain
p1205
tp1206
sL7336L
(F4854.518518518518
L4200368L
Vmain
p1207
tp1208
sL17576L
(F10.666666666666666
L4211584L
Vmd5_process_bytes
p1209
tp1210
sL29867L
(F390.0952380952381
L4223248L
Vlocale_charset
p1211
tp1212
sL11444L
(F1233362808.3326476
L4200368L
Vmain
p1213
tp1214
sL29876L
(F780.1904761904761
L4223248L
Vlocale_charset
p1215
tp1216
sL27830L
(F32.0
L4221808L
Vrpl_fcntl
p1217
tp1218
sL29878L
(F18.285714285714285
L4223248L
Vlocale_charset
p1219
tp1220
sL9403L
(F12044558.67512351
L4200368L
Vmain
p1221
tp1222
sL29886L
(F5.821864416190106
L4223248L
Vlocale_charset
p1223
tp1224
sL17600L
(F8.0
L4211584L
Vmd5_process_bytes
p1225
tp1226
sL21696L
(F16.0
L4214240L
Vquotearg_buffer_restyled
p1227
tp1228
sL11459L
(F9709.037037037036
L4200368L
Vmain
p1229
tp1230
sL27845L
(F3.2
L4221808L
Vrpl_fcntl
p1231
tp1232
sL29894L
(F4681.142857142857
L4223248L
Vlocale_charset
p1233
tp1234
sL21704L
(F32.0
L4214240L
Vquotearg_buffer_restyled
p1235
tp1236
sL27850L
(F1.0
L4222160L
Vrpl_fflush
p1237
tp1238
sL21712L
(F64.0
L4214240L
Vquotearg_buffer_restyled
p1239
tp1240
sL25808L
(F44.0
L4219392L
Vversion_etc_arn
p1241
tp1242
sL27856L
(F1.0
L4222160L
Vrpl_fflush
p1243
tp1244
sL9425L
(F6022279.337561755
L4200368L
Vmain
p1245
tp1246
sL11480L
(F19418.074074074073
L4200368L
Vmain
p1247
tp1248
sL21720L
(F32.0
L4214240L
Vquotearg_buffer_restyled
p1249
tp1250
sL17628L
(F2.6666666666666665
L4211584L
Vmd5_process_bytes
p1251
tp1252
sL27868L
(F2.0
L4222160L
Vrpl_fflush
p1253
tp1254
sL7395L
(F9709.037037037036
L4200368L
Vmain
p1255
tp1256
sL17637L
(F5.333333333333333
L4211584L
Vmd5_process_bytes
p1257
tp1258
sL11496L
(F6472.691358024691
L4200368L
Vmain
p1259
tp1260
sL27881L
(F1.3333333333333333
L4222160L
Vrpl_fflush
p1261
tp1262
sL19690L
(F4.0
L4213872L
Vquoting_options_from_style
p1263
tp1264
sL29931L
(F9362.285714285714
L4223248L
Vlocale_charset
p1265
tp1266
sL19695L
(F2.0
L4213872L
Vquoting_options_from_style
p1267
tp1268
sL19700L
(F4.0
L4213872L
Vquoting_options_from_style
p1269
tp1270
sL7415L
(F4854.518518518518
L4200368L
Vmain
p1271
tp1272
sL17656L
(F2.0
L4211584L
Vmd5_process_bytes
p1273
tp1274
sL19705L
(F1.0
L4214016L
Vgettext_quote
p1275
tp1276
sL9468L
(F12044558.67512351
L4200368L
Vmain
p1277
tp1278
sL19712L
(F1.0
L4214016L
Vgettext_quote
p1279
tp1280
sL21760L
(F16.0
L4214240L
Vquotearg_buffer_restyled
p1281
tp1282
sL29958L
(F4.923076923076923
L4223248L
Vlocale_charset
p1283
tp1284
sL25865L
(F22.0
L4219392L
Vversion_etc_arn
p1285
tp1286
sL27915L
(F2.6666666666666665
L4222160L
Vrpl_fflush
p1287
tp1288
sL29963L
(F16.0
L4223248L
Vlocale_charset
p1289
tp1290
sL9490L
(F6022279.337561755
L4200368L
Vmain
p1291
tp1292
sL19739L
(F2.0
L4214016L
Vgettext_quote
p1293
tp1294
sL7452L
(F9709.037037037036
L4200368L
Vmain
p1295
tp1296
sL27935L
(F1.3333333333333333
L4222160L
Vrpl_fflush
p1297
tp1298
sL19744L
(F1.0178926441351888
L4214016L
Vgettext_quote
p1299
tp1300
sL29984L
(F1.0
L4224288L
V__libc_csu_init
p1301
tp1302
sL21800L
(F16.0
L4214240L
Vquotearg_buffer_restyled
p1303
tp1304
sL17710L
(F2.1333333333333333
L4211584L
Vmd5_process_bytes
p1305
tp1306
sL7472L
(F4854.518518518518
L4200368L
Vmain
p1307
tp1308
sL9533L
(F12044558.67512351
L4200368L
Vmain
p1309
tp1310
sL17728L
(F21.333333333333332
L4211584L
Vmd5_process_bytes
p1311
tp1312
sL19776L
(F2.0
L4214016L
Vgettext_quote
p1313
tp1314
sL25920L
(F44.0
L4219392L
Vversion_etc_arn
p1315
tp1316
sL23876L
(F2.0
L4217984L
Vquotearg_alloc_mem
p1317
tp1318
sL27973L
(F2.6666666666666665
L4222160L
Vrpl_fflush
p1319
tp1320
sL19788L
(F4.0
L4214016L
Vgettext_quote
p1321
tp1322
sL23885L
(F1.0
L4217984L
Vquotearg_alloc_mem
p1323
tp1324
sL9555L
(F6022279.337561755
L4200368L
Vmain
p1325
tp1326
sL11605L
(F38836.148148148146
L4200368L
Vmain
p1327
tp1328
sL30038L
(F2.0
L4224288L
V__libc_csu_init
p1329
tp1330
sL7512L
(F9709.037037037036
L4200368L
Vmain
p1331
tp1332
sL19800L
(F8.0
L4214016L
Vgettext_quote
p1333
tp1334
sL21848L
(F16.0
L4214240L
Vquotearg_buffer_restyled
p1335
tp1336
sL27993L
(F1.3333333333333333
L4222160L
Vrpl_fflush
p1337
tp1338
sL11610L
(F3.5555555555555554
L4200368L
Vmain
p1339
tp1340
sL19806L
(F16.0
L4214016L
Vgettext_quote
p1341
tp1342
sL30048L
(F1.3333333333333333
L4224288L
V__libc_csu_init
p1343
tp1344
sL19812L
(F32.0
L4214016L
Vgettext_quote
p1345
tp1346
sL11621L
(F7.111111111111111
L4200368L
Vmain
p1347
tp1348
sL19818L
(F64.0
L4214016L
Vgettext_quote
p1349
tp1350
sL7532L
(F4854.518518518518
L4200368L
Vmain
p1351
tp1352
sL17776L
(F4.0
L4211584L
Vmd5_process_bytes
p1353
tp1354
sL11636L
(F19418.074074074073
L4200368L
Vmain
p1355
tp1356
sL30070L
(F1.3333333333333333
L4224288L
V__libc_csu_init
p1357
tp1358
sL9598L
(F12044558.67512351
L4200368L
Vmain
p1359
tp1360
sL5504L
(F0.6666666666666666
L4212880L
Vfadvise
p1361
tp1362
sL23936L
(F1.0
L4218240L
Vquotearg_free
p1363
tp1364
sL28035L
(F2.6666666666666665
L4222160L
Vrpl_fflush
p1365
tp1366
sL19848L
(F4.0
L4214016L
Vgettext_quote
p1367
tp1368
sL11656L
(F9089877.875132276
L4200368L
Vmain
p1369
tp1370
sL21896L
(F16.0
L4214240L
Vquotearg_buffer_restyled
p1371
tp1372
sL25992L
(F2.0
L4219392L
Vversion_etc_arn
p1373
tp1374
sL21898L
(F32.0
L4214240L
Vquotearg_buffer_restyled
p1375
tp1376
sL11665L
(F4854.518518518518
L4200368L
Vmain
p1377
tp1378
sL9620L
(F6022279.337561755
L4200368L
Vmain
p1379
tp1380
sL19860L
(F8.0
L4214016L
Vgettext_quote
p1381
tp1382
sL23958L
(F2.0
L4218240L
Vquotearg_free
p1383
tp1384
sL28055L
(F1.3333333333333333
L4222160L
Vrpl_fflush
p1385
tp1386
sL19866L
(F16.0
L4214016L
Vgettext_quote
p1387
tp1388
sL17819L
(F8.0
L4211584L
Vmd5_process_bytes
p1389
tp1390
sL7580L
(F9709.037037037036
L4200368L
Vmain
p1391
tp1392
sL17824L
(F16.0
L4211584L
Vmd5_process_bytes
p1393
tp1394
sL19872L
(F32.0
L4214016L
Vgettext_quote
p1395
tp1396
sL30112L
(F1.0
L4224416L
Vatexit
p1397
tp1398
sL17828L
(F32.0
L4211584L
Vmd5_process_bytes
p1399
tp1400
sL26024L
(F3.666666666666667
L4219392L
Vversion_etc_arn
p1401
tp1402
sL11689L
(F9709.037037037036
L4200368L
Vmain
p1403
tp1404
sL19882L
(F64.0
L4214016L
Vgettext_quote
p1405
tp1406
sL30124L
(F2.0
L4224416L
Vatexit
p1407
tp1408
sL7600L
(F4854.518518518518
L4200368L
Vmain
p1409
tp1410
sL13744L
(F4.0
L4207456L
Vusage
p1411
tp1412
sL23984L
(F1.3333333333333333
L4218240L
Vquotearg_free
p1413
tp1414
sL17844L
(F64.0
L4211584L
Vmd5_process_bytes
p1415
tp1416
sL19892L
(F128.0
L4214016L
Vgettext_quote
p1417
tp1418
sL11702L
(F19418.074074074073
L4200368L
Vmain
p1419
tp1420
sL21942L
(F32.0
L4214240L
Vquotearg_buffer_restyled
p1421
tp1422
sL11707L
(F496896.7016938771
L4200368L
Vmain
p1423
tp1424
sL13756L
(F1.6
L4207456L
Vusage
p1425
tp1426
sL19902L
(F256.0
L4214016L
Vgettext_quote
p1427
tp1428
sL9663L
(F12044558.67512351
L4200368L
Vmain
p1429
tp1430
sL30144L
(F2.0
L4224416L
Vatexit
p1431
tp1432
sL24001L
(F1.3333333333333333
L4218240L
Vquotearg_free
p1433
tp1434
sL28097L
(F2.6666666666666665
L4222160L
Vrpl_fflush
p1435
tp1436
sL13768L
(F2.2857142857142856
L4207456L
Vusage
p1437
tp1438
sL17864L
(F8.0
L4211584L
Vmd5_process_bytes
p1439
tp1440
sL19912L
(F512.0
L4214016L
Vgettext_quote
p1441
tp1442
sL24015L
(F2.6666666666666665
L4218240L
Vquotearg_free
p1443
tp1444
sL9685L
(F6022279.337561755
L4200368L
Vmain
p1445
tp1446
sL28117L
(F1.3333333333333333
L4222160L
Vrpl_fflush
p1447
tp1448
sL7642L
(F9709.037037037036
L4200368L
Vmain
p1449
tp1450
sL19936L
(F1.0
L4214240L
Vquotearg_buffer_restyled
p1451
tp1452
sL13793L
(F8.0
L4207456L
Vusage
p1453
tp1454
sL21986L
(F18.285714285714285
L4214240L
Vquotearg_buffer_restyled
p1455
tp1456
sL21992L
(F51.2
L4214240L
Vquotearg_buffer_restyled
p1457
tp1458
sL24042L
(F1.3333333333333333
L4218240L
Vquotearg_free
p1459
tp1460
sL7663L
(F4854.518518518518
L4200368L
Vmain
p1461
tp1462
sL26096L
(F1.0
L4220400L
Vversion_etc_ar
p1463
tp1464
sL24051L
(F2.6666666666666665
L4218240L
Vquotearg_free
p1465
tp1466
sL22004L
(F102.4
L4214240L
Vquotearg_buffer_restyled
p1467
tp1468
sL17912L
(F16.0
L4211584L
Vmd5_process_bytes
p1469
tp1470
sL26105L
(F2.0
L4220400L
Vversion_etc_ar
p1471
tp1472
sL11772L
(F993793.4033877542
L4200368L
Vmain
p1473
tp1474
sL17917L
(F10.666666666666666
L4211584L
Vmd5_process_bytes
p1475
tp1476
sL28159L
(F2.6666666666666665
L4222160L
Vrpl_fflush
p1477
tp1478
sL22016L
(F68.26666666666667
L4214240L
Vquotearg_buffer_restyled
p1479
tp1480
sL9728L
(F12044558.67512351
L4200368L
Vmain
p1481
tp1482
sL26112L
(F1.3333333333333333
L4220400L
Vversion_etc_ar
p1483
tp1484
sL22021L
(F204.8
L4214240L
Vquotearg_buffer_restyled
p1485
tp1486
sL24070L
(F1.3333333333333333
L4218240L
Vquotearg_free
p1487
tp1488
sL22024L
(F102.4
L4214240L
Vquotearg_buffer_restyled
p1489
tp1490
sL26123L
(F1.3333333333333333
L4220400L
Vversion_etc_ar
p1491
tp1492
sL17934L
(F32.0
L4211584L
Vmd5_process_bytes
p1493
tp1494
sL13840L
(F16.0
L4207456L
Vusage
p1495
tp1496
sL26128L
(F1.0
L4220432L
Vversion_etc_va
p1497
tp1498
sL5648L
(F1.1428571428571428
L4222160L
Vrpl_fflush
p1499
tp1500
sL11793L
(F496896.7016938771
L4200368L
Vmain
p1501
tp1502
sL17939L
(F5.333333333333333
L4211584L
Vmd5_process_bytes
p1503
tp1504
sL28179L
(F1.3333333333333333
L4222160L
Vrpl_fflush
p1505
tp1506
sL22036L
(F29.257142857142856
L4214240L
Vquotearg_buffer_restyled
p1507
tp1508
sL9750L
(F6022279.337561755
L4200368L
Vmain
p1509
tp1510
sL7705L
(F9709.037037037036
L4200368L
Vmain
p1511
tp1512
sL17948L
(F16.0
L4211584L
Vmd5_process_bytes
p1513
tp1514
sL13866L
(F6.4
L4207456L
Vusage
p1515
tp1516
sL7725L
(F4854.518518518518
L4200368L
Vmain
p1517
tp1518
sL17968L
(F1.0
L4212272L
Vmd5_buffer
p1519
tp1520
sL26160L
(F2.0
L4220432L
Vversion_etc_va
p1521
tp1522
sL11825L
(F496896.7016938771
L4200368L
Vmain
p1523
tp1524
sL28216L
(F4.0
L4222160L
Vrpl_fflush
p1525
tp1526
sL9792L
(F12044558.67512351
L4200368L
Vmain
p1527
tp1528
sL26185L
(F2.0
L4220432L
Vversion_etc_va
p1529
tp1530
sL22096L
(F36.57142857142857
L4214240L
Vquotearg_buffer_restyled
p1531
tp1532
sL26195L
(F0.8
L4220432L
Vversion_etc_va
p1533
tp1534
sL9812L
(F6022279.337561755
L4200368L
Vmain
p1535
tp1536
sL7766L
(F9709.037037037036
L4200368L
Vmain
p1537
tp1538
sL28250L
(F8.0
L4222160L
Vrpl_fflush
p1539
tp1540
sL26203L
(F2.0
L4220432L
Vversion_etc_va
p1541
tp1542
sL22112L
(F512.0
L4214240L
Vquotearg_buffer_restyled
p1543
tp1544
sL20069L
(F2.0
L4214240L
Vquotearg_buffer_restyled
p1545
tp1546
sL11878L
(F248448.35084693856
L4200368L
Vmain
p1547
tp1548
sL13927L
(F4.571428571428571
L4207456L
Vusage
p1549
tp1550
sL7786L
(F4854.518518518518
L4200368L
Vmain
p1551
tp1552
sL20074L
(F2.0
L4214240L
Vquotearg_buffer_restyled
p1553
tp1554
sL9837L
(F12044558.67512351
L4200368L
Vmain
p1555
tp1556
sL28270L
(F4.0
L4222160L
Vrpl_fflush
p1557
tp1558
sL22128L
(F3855.0588235294117
L4214240L
Vquotearg_buffer_restyled
p1559
tp1560
sL26227L
(F4.0
L4220432L
Vversion_etc_va
p1561
tp1562
sL20088L
(F8.0
L4214240L
Vquotearg_buffer_restyled
p1563
tp1564
sL26232L
(F1.3333333333333333
L4220432L
Vversion_etc_va
p1565
tp1566
sL9856L
(F24089117.35024702
L4200368L
Vmain
p1567
tp1568
sL22150L
(F3855.0588235294117
L4214240L
Vquotearg_buffer_restyled
p1569
tp1570
sL28295L
(F4.0
L4222160L
Vrpl_fflush
p1571
tp1572
sL24208L
(F1.0
L4218512L
Vquotearg_n_style
p1573
tp1574
sL26256L
(F8.0
L4220432L
Vversion_etc_va
p1575
tp1576
sL13970L
(F8.0
L4207456L
Vusage
p1577
tp1578
sL9875L
(F9635646.94009881
L4200368L
Vmain
p1579
tp1580
sL26261L
(F8.0
L4220432L
Vversion_etc_va
p1581
tp1582
sL7830L
(F9709.037037037036
L4200368L
Vmain
p1583
tp1584
sL20120L
(F2.12008281573499
L4214240L
Vquotearg_buffer_restyled
p1585
tp1586
sL28312L
(F8.0
L4222160L
Vrpl_fflush
p1587
tp1588
sL26266L
(F1.0
L4220576L
Vversion_etc
p1589
tp1590
sL11931L
(F552336.329218107
L4200368L
Vmain
p1591
tp1592
sL9885L
(F24089117.35024702
L4200368L
Vmain
p1593
tp1594
sL26272L
(F1.0
L4220576L
Vversion_etc
p1595
tp1596
sL9896L
(F16059411.566831348
L4200368L
Vmain
p1597
tp1598
sL7850L
(F4854.518518518518
L4200368L
Vmain
p1599
tp1600
sL18091L
(F2.0
L4212272L
Vmd5_buffer
p1601
tp1602
sL11952L
(F1104672.658436214
L4200368L
Vmain
p1603
tp1604
sL28336L
(F1.0
L4222640L
Vrpl_fseeko
p1605
tp1606
sL7859L
(F9709.037037037036
L4200368L
Vmain
p1607
tp1608
sL18100L
(F2.0
L4212272L
Vmd5_buffer
p1609
tp1610
sL26293L
(F2.0
L4220576L
Vversion_etc
p1611
tp1612
sL9911L
(F9635646.94009881
L4200368L
Vmain
p1613
tp1614
sL20151L
(F2.120014233493999
L4214240L
Vquotearg_buffer_restyled
p1615
tp1616
sL18105L
(F1.0
L4212416L
Vmd5_stream
p1617
tp1618
sL22201L
(F3747.109857896647
L4214240L
Vquotearg_buffer_restyled
p1619
tp1620
sL28346L
(F1.1428571428571428
L4222640L
Vrpl_fseeko
p1621
tp1622
sL7868L
(F19418.074074074073
L4200368L
Vmain
p1623
tp1624
sL9919L
(F96356469.40098809
L4200368L
Vmain
p1625
tp1626
sL18112L
(F1.0
L4212416L
Vmd5_stream
p1627
tp1628
sL28352L
(F2.0
L4222640L
Vrpl_fseeko
p1629
tp1630
sL14017L
(F16.0
L4207456L
Vusage
p1631
tp1632
sL20167L
(F16.0
L4214240L
Vquotearg_buffer_restyled
p1633
tp1634
sL7880L
(F19418.074074074073
L4200368L
Vmain
p1635
tp1636
sL9930L
(F192712938.80197617
L4200368L
Vmain
p1637
tp1638
sL28362L
(F4.0
L4222640L
Vrpl_fseeko
p1639
tp1640
sL20176L
(F15.995800643924703
L4214240L
Vquotearg_buffer_restyled
p1641
tp1642
sL5840L
(F2.0
L4222640L
Vrpl_fseeko
p1643
tp1644
sL28369L
(F8.0
L4222640L
Vrpl_fseeko
p1645
tp1646
sL7893L
(F77672.29629629629
L4200368L
Vmain
p1647
tp1648
sL14039L
(F10.666666666666666
L4207456L
Vusage
p1649
tp1650
sL24279L
(F2.0
L4218512L
Vquotearg_n_style
p1651
tp1652
sL20184L
(F15.995800643924703
L4214240L
Vquotearg_buffer_restyled
p1653
tp1654
sL9946L
(F96356469.40098809
L4200368L
Vmain
p1655
tp1656
sL24286L
(F2.0
L4218512L
Vquotearg_n_style
p1657
tp1658
sL11999L
(F138084.08230452676
L4200368L
Vmain
p1659
tp1660
sL24291L
(F1.0
L4218608L
Vquotearg_n_style_mem
p1661
tp1662
sL20202L
(F64.0
L4214240L
Vquotearg_buffer_restyled
p1663
tp1664
sL26348L
(F1.0
L4220576L
Vversion_etc
p1665
tp1666
sL12014L
(F303.4074074074074
L4200368L
Vmain
p1667
tp1668
sL7920L
(F38836.148148148146
L4200368L
Vmain
p1669
tp1670
sL24304L
(F1.0
L4218608L
Vquotearg_n_style_mem
p1671
tp1672
sL20210L
(F128.0
L4214240L
Vquotearg_buffer_restyled
p1673
tp1674
sL22258L
(F15420.235294117647
L4214240L
Vquotearg_buffer_restyled
p1675
tp1676
sL7925L
(F77672.29629629629
L4200368L
Vmain
p1677
tp1678
sL28406L
(F16.0
L4222640L
Vrpl_fseeko
p1679
tp1680
sL9980L
(F192712938.80197617
L4200368L
Vmain
p1681
tp1682
sL22268L
(F30840.470588235294
L4214240L
Vquotearg_buffer_restyled
p1683
tp1684
sL14081L
(F7.111111111111111
L4207456L
Vusage
p1685
tp1686
sL20226L
(F256.0
L4214240L
Vquotearg_buffer_restyled
p1687
tp1688
sL28418L
(F8.0
L4222640L
Vrpl_fseeko
p1689
tp1690
sL18179L
(F2.0
L4212416L
Vmd5_stream
p1691
tp1692
sL22278L
(F61680.94117647059
L4214240L
Vquotearg_buffer_restyled
p1693
tp1694
sL20232L
(F512.0
L4214240L
Vquotearg_buffer_restyled
p1695
tp1696
sL7945L
(F38836.148148148146
L4200368L
Vmain
p1697
tp1698
sL22285L
(F123361.88235294117
L4214240L
Vquotearg_buffer_restyled
p1699
tp1700
sL12047L
(F18179755.75026455
L4200368L
Vmain
p1701
tp1702
sL28432L
(F1.0
L4222736L
Vclose_stream
p1703
tp1704
sL5904L
(F1.0
L4224416L
Vatexit
p1705
tp1706
sL10001L
(F96356469.40098809
L4200368L
Vmain
p1707
tp1708
sL14097L
(F32.0
L4207456L
Vusage
p1709
tp1710
sL22292L
(F246723.76470588235
L4214240L
Vquotearg_buffer_restyled
p1711
tp1712
sL14102L
(F16.0
L4207456L
Vusage
p1713
tp1714
sL22298L
(F493447.5294117647
L4214240L
Vquotearg_buffer_restyled
p1715
tp1716
sL12067L
(F36359511.5005291
L4200368L
Vmain
p1717
tp1718
sL18213L
(F4.0
L4212416L
Vmd5_stream
p1719
tp1720
sL20262L
(F128.0
L4214240L
Vquotearg_buffer_restyled
p1721
tp1722
sL22312L
(F358870.9304812834
L4214240L
Vquotearg_buffer_restyled
p1723
tp1724
sL12074L
(F19418.074074074073
L4200368L
Vmain
p1725
tp1726
sL7979L
(F77672.29629629629
L4200368L
Vmain
p1727
tp1728
sL10030L
(F192712938.80197617
L4200368L
Vmain
p1729
tp1730
sL20271L
(F256.0
L4214240L
Vquotearg_buffer_restyled
p1731
tp1732
sL22326L
(F986895.0588235294
L4214240L
Vquotearg_buffer_restyled
p1733
tp1734
sL24376L
(F2.0
L4218608L
Vquotearg_n_style_mem
p1735
tp1736
sL18233L
(F2.0
L4212416L
Vmd5_stream
p1737
tp1738
sL28473L
(F2.0
L4222736L
Vclose_stream
p1739
tp1740
sL26426L
(F2.0
L4220576L
Vversion_etc
p1741
tp1742
sL12094L
(F124275.67407407408
L4200368L
Vmain
p1743
tp1744
sL7999L
(F38836.148148148146
L4200368L
Vmain
p1745
tp1746
sL10049L
(F385425877.60395235
L4200368L
Vmain
p1747
tp1748
sL24385L
(F2.0
L4218608L
Vquotearg_n_style_mem
p1749
tp1750
sL26434L
(F2.0
L4220576L
Vversion_etc
p1751
tp1752
sL12108L
(F62137.83703703704
L4200368L
Vmain
p1753
tp1754
sL28493L
(F1.0
L4222736L
Vclose_stream
p1755
tp1756
sL22351L
(F657930.0392156863
L4214240L
Vquotearg_buffer_restyled
p1757
tp1758
sL22360L
(F66908.13958125623
L4214240L
Vquotearg_buffer_restyled
p1759
tp1760
sL12123L
(F606.8148148148148
L4200368L
Vmain
p1761
tp1762
sL14176L
(F1.0
L4208480L
Vclose_stdout
p1763
tp1764
sL20320L
(F512.0
L4214240L
Vquotearg_buffer_restyled
p1765
tp1766
sL12133L
(F1104672.658436214
L4200368L
Vmain
p1767
tp1768
sL20331L
(F1024.0
L4214240L
Vquotearg_buffer_restyled
p1769
tp1770
sL10096L
(F38836.148148148146
L4200368L
Vmain
p1771
tp1772
sL24432L
(F1.0
L4218736L
Vquotearg_char_mem
p1773
tp1774
sL8051L
(F77672.29629629629
L4200368L
Vmain
p1775
tp1776
sL28531L
(F2.0
L4222736L
Vclose_stream
p1777
tp1778
sL14198L
(F2.0
L4208480L
Vclose_stdout
p1779
tp1780
sL20344L
(F33.03225806451613
L4214240L
Vquotearg_buffer_restyled
p1781
tp1782
sL18302L
(F1.3333333333333333
L4212416L
Vmd5_stream
p1783
tp1784
sL14207L
(F4.0
L4208480L
Vclose_stdout
p1785
tp1786
sL20358L
(F2048.0
L4214240L
Vquotearg_buffer_restyled
p1787
tp1788
sL8071L
(F38836.148148148146
L4200368L
Vmain
p1789
tp1790
sL22407L
(F13826.90099927887
L4214240L
Vquotearg_buffer_restyled
p1791
tp1792
sL28551L
(F1.0
L4222736L
Vclose_stream
p1793
tp1794
sL18312L
(F4.0
L4212416L
Vmd5_stream
p1795
tp1796
sL14217L
(F1.6
L4208480L
Vclose_stdout
p1797
tp1798
sL20362L
(F2048.0
L4214240L
Vquotearg_buffer_restyled
p1799
tp1800
sL18317L
(F8.0
L4212416L
Vmd5_stream
p1801
tp1802
sL10128L
(F177536.67724867724
L4200368L
Vmain
p1803
tp1804
sL18323L
(F1.2307692307692308
L4212416L
Vmd5_stream
p1805
tp1806
sL20376L
(F32768.0
L4214240L
Vquotearg_buffer_restyled
p1807
tp1808
sL14233L
(F3.2
L4208480L
Vclose_stdout
p1809
tp1810
sL10144L
(F9367990.08065162
L4200368L
Vmain
p1811
tp1812
sL12192L
(F1.0
L4206496L
Vderegister_tm_clones
p1813
tp1814
sL14240L
(F2.6666666666666665
L4208480L
Vclose_stdout
p1815
tp1816
sL20389L
(F65536.0
L4214240L
Vquotearg_buffer_restyled
p1817
tp1818
sL20398L
(F131072.0
L4214240L
Vquotearg_buffer_restyled
p1819
tp1820
sL6064L
(F1.0
L4200368L
Vmain
p1821
tp1822
sL22449L
(F8408.051619369793
L4214240L
Vquotearg_buffer_restyled
p1823
tp1824
sL28593L
(F2.0
L4222736L
Vclose_stream
p1825
tp1826
sL12213L
(F2.0
L4206496L
Vderegister_tm_clones
p1827
tp1828
sL18358L
(F4.0
L4212416L
Vmd5_stream
p1829
tp1830
sL8120L
(F77672.29629629629
L4200368L
Vmain
p1831
tp1832
sL20409L
(F262144.0
L4214240L
Vquotearg_buffer_restyled
p1833
tp1834
sL22459L
(F27653.80199855774
L4214240L
Vquotearg_buffer_restyled
p1835
tp1836
sL12223L
(F4.0
L4206496L
Vderegister_tm_clones
p1837
tp1838
sL22464L
(F32768.0
L4214240L
Vquotearg_buffer_restyled
p1839
tp1840
sL14272L
(F5.333333333333333
L4208480L
Vclose_stdout
p1841
tp1842
sL28613L
(F1.0
L4222736L
Vclose_stream
p1843
tp1844
sL20422L
(F524288.0
L4214240L
Vquotearg_buffer_restyled
p1845
tp1846
sL22475L
(F65536.0
L4214240L
Vquotearg_buffer_restyled
p1847
tp1848
sL8140L
(F38836.148148148146
L4200368L
Vmain
p1849
tp1850
sL18384L
(F8.0
L4212416L
Vmd5_stream
p1851
tp1852
sL12240L
(F1.3333333333333333
L4206496L
Vderegister_tm_clones
p1853
tp1854
sL26576L
(F1.0
L4220880L
Vxmalloc
p1855
tp1856
sL20434L
(F1048576.0
L4214240L
Vquotearg_buffer_restyled
p1857
tp1858
sL10200L
(F5681173.671957672
L4200368L
Vmain
p1859
tp1860
sL22488L
(F1973790.1176470588
L4214240L
Vquotearg_buffer_restyled
p1861
tp1862
sL18394L
(F8.0
L4212416L
Vmd5_stream
p1863
tp1864
sL20444L
(F2097152.0
L4214240L
Vquotearg_buffer_restyled
p1865
tp1866
sL26590L
(F2.0
L4220880L
Vxmalloc
p1867
tp1868
sL18399L
(F16.0
L4212416L
Vmd5_stream
p1869
tp1870
sL12256L
(F1.0
L4206560L
Vregister_tm_clones
p1871
tp1872
sL14307L
(F1.4545454545454546
L4208480L
Vclose_stdout
p1873
tp1874
sL26595L
(F1.3333333333333333
L4220880L
Vxmalloc
p1875
tp1876
sL26597L
(F4.0
L4220880L
Vxmalloc
p1877
tp1878
sL10215L
(F9635646.94009881
L4200368L
Vmain
p1879
tp1880
sL22504L
(F65536.0
L4214240L
Vquotearg_buffer_restyled
p1881
tp1882
sL26602L
(F1.0
L4220912L
Vxnmalloc
p1883
tp1884
sL20460L
(F4194304.0
L4214240L
Vquotearg_buffer_restyled
p1885
tp1886
sL14318L
(F5.333333333333333
L4208480L
Vclose_stdout
p1887
tp1888
sL28655L
(F2.0
L4222736L
Vclose_stream
p1889
tp1890
sL26608L
(F1.0
L4220912L
Vxnmalloc
p1891
tp1892
sL8178L
(F77672.29629629629
L4200368L
Vmain
p1893
tp1894
sL10230L
(F24089117.35024702
L4200368L
Vmain
p1895
tp1896
sL20471L
(F8388608.0
L4214240L
Vquotearg_buffer_restyled
p1897
tp1898
sL22520L
(F1.7777777777777777
L4214240L
Vquotearg_buffer_restyled
p1899
tp1900
sL10235L
(F36359511.5005291
L4200368L
Vmain
p1901
tp1902
sL22525L
(F7710.117647058823
L4214240L
Vquotearg_buffer_restyled
p1903
tp1904
sL20478L
(F16777216.0
L4214240L
Vquotearg_buffer_restyled
p1905
tp1906
s.