(dp0
L12288L
(F1.0
L4224352L
tp1
sL26624L
(F1.7777777777777777
L4224352L
tp2
sL28673L
(F1.0
L4224352L
tp3
sL8197L
(F77672.29629629629
L4224352L
tp4
sL20486L
(F8388608.0
L4224352L
tp5
sL10248L
(F23566350.04663923
L4224352L
tp6
sL26632L
(F4.0
L4224352L
tp7
sL12299L
(F1.3333333333333333
L4224352L
tp8
sL18447L
(F4.0
L4224352L
tp9
sL12304L
(F2.0
L4224352L
tp10
sL20496L
(F3372.982710092481
L4224352L
tp11
sL26641L
(F5.333333333333333
L4224352L
tp12
sL14355L
(F1.0
L4224352L
tp13
sL26646L
(F1.0
L4224352L
tp14
sL20503L
(F6188.571007008484
L4224352L
tp15
sL8217L
(F38836.148148148146
L4224352L
tp16
sL12314L
(F4.0
L4224352L
tp17
sL18463L
(F16.0
L4224352L
tp18
sL26656L
(F1.0
L4224352L
tp19
sL20513L
(F87609.48302872063
L4224352L
tp20
sL10282L
(F1213.6296296296296
L4224352L
tp21
sL22570L
(F123361.88235294117
L4224352L
tp22
sL28715L
(F2.0
L4224352L
tp23
sL18478L
(F4.0
L4224352L
tp24
sL12336L
(F1.0
L4224352L
tp25
sL22576L
(F246723.76470588235
L4224352L
tp26
sL24624L
(F1.0
L4224352L
tp27
sL26676L
(F2.0
L4224352L
tp28
sL20536L
(F25031.280865348752
L4224352L
tp29
sL22584L
(F493447.5294117647
L4224352L
tp30
sL26682L
(F2.0
L4224352L
tp31
sL20541L
(F26935.12502508529
L4224352L
tp32
sL6206L
(F0.6701570680628273
L4224352L
tp33
sL12351L
(F1.7534246575342465
L4224352L
tp34
sL22591L
(F197379.01176470588
L4224352L
tp35
sL28735L
(F1.0
L4224352L
tp36
sL18496L
(F1.0
L4224352L
tp37
sL26688L
(F1.0
L4224352L
tp38
sL8259L
(F77672.29629629629
L4224352L
tp39
sL12359L
(F4.0
L4224352L
tp40
sL10311L
(F2427.259259259259
L4224352L
tp41
sL20552L
(F77875.09602552945
L4224352L
tp42
sL12363L
(F8.0
L4224352L
tp43
sL26699L
(F2.0
L4224352L
tp44
sL22605L
(F281970.0168067227
L4224352L
tp45
sL20559L
(F155750.1920510589
L4224352L
tp46
sL18512L
(F1.0
L4224352L
tp47
sL12368L
(F16.0
L4224352L
tp48
sL22608L
(F70492.50420168067
L4224352L
tp49
sL22615L
(F30840.470588235294
L4224352L
tp50
sL20568L
(F77875.09602552945
L4224352L
tp51
sL8280L
(F38836.148148148146
L4224352L
tp52
sL18521L
(F2.0
L4224352L
tp53
sL12380L
(F32.0
L4224352L
tp54
sL20572L
(F24724.643640047896
L4224352L
tp55
sL10333L
(F3236.3456790123455
L4224352L
tp56
sL26719L
(F4.0
L4224352L
tp57
sL20576L
(F11225.50311546021
L4224352L
tp58
sL12384L
(F64.0
L4224352L
tp59
sL6242L
(F2.0
L4224352L
tp60
sL20583L
(F60945.727324327396
L4224352L
tp61
sL10344L
(F9709.037037037036
L4224352L
tp62
sL26730L
(F1.3333333333333333
L4224352L
tp63
sL6251L
(F4.0
L4224352L
tp64
sL6253L
(F8.0
L4224352L
tp65
sL28781L
(F2.0
L4224352L
tp66
sL12400L
(F3.0476190476190474
L4224352L
tp67
sL14448L
(F1.0
L4224352L
tp68
sL20592L
(F30472.863662163698
L4224352L
tp69
sL28785L
(F4.0
L4224352L
tp70
sL12408L
(F8.0
L4224352L
tp71
sL6264L
(F16.0
L4224352L
tp72
sL6266L
(F32.0
L4224352L
tp73
sL28795L
(F2.6666666666666665
L4224352L
tp74
sL10365L
(F19418.074074074073
L4224352L
tp75
sL12414L
(F5.818181818181818
L4224352L
tp76
sL26752L
(F2.0
L4224352L
tp77
sL28800L
(F2.0
L4224352L
tp78
sL6275L
(F64.0
L4224352L
tp79
sL20612L
(F15.995800643924703
L4224352L
tp80
sL28804L
(F4.0
L4224352L
tp81
sL8325L
(F77672.29629629629
L4224352L
tp82
sL22661L
(F64.0
L4224352L
tp83
sL26757L
(F4.0
L4224352L
tp84
sL18568L
(F4.0
L4224352L
tp85
sL12427L
(F14.222222222222221
L4224352L
tp86
sL6284L
(F128.0
L4224352L
tp87
sL10381L
(F6472.691358024691
L4224352L
tp88
sL12435L
(F28.444444444444443
L4224352L
tp89
sL20628L
(F15.997900046385697
L4224352L
tp90
sL12439L
(F1.7534246575342465
L4224352L
tp91
sL10393L
(F9709.037037037036
L4224352L
tp92
sL8345L
(F38836.148148148146
L4224352L
tp93
sL18588L
(F2.0
L4224352L
tp94
sL26783L
(F4.0
L4224352L
tp95
sL10400L
(F8630.255144032923
L4224352L
tp96
sL12448L
(F32.0
L4224352L
tp97
sL28832L
(F8.0
L4224352L
tp98
sL22690L
(F128.0
L4224352L
tp99
sL26789L
(F1.0
L4224352L
tp100
sL14502L
(F2.0
L4224352L
tp101
sL24742L
(F2.0
L4224352L
tp102
sL6312L
(F8.0
L4224352L
tp103
sL20648L
(F31.995800092771393
L4224352L
tp104
sL24747L
(F4.0
L4224352L
tp105
sL12464L
(F1.0
L4224352L
tp106
sL26800L
(F1.0
L4224352L
tp107
sL20657L
(F21.33053339518093
L4224352L
tp108
sL6323L
(F16.0
L4224352L
tp109
sL6325L
(F32.0
L4224352L
tp110
sL26808L
(F2.0
L4224352L
tp111
sL28856L
(F4.0
L4224352L
tp112
sL12473L
(F2.0
L4224352L
tp113
sL6330L
(F64.0
L4224352L
tp114
sL14523L
(F1.0
L4224352L
tp115
sL8383L
(F77672.29629629629
L4224352L
tp116
sL22719L
(F32.0
L4224352L
tp117
sL12480L
(F16.0
L4224352L
tp118
sL18626L
(F4.0
L4224352L
tp119
sL20674L
(F42.66106679036186
L4224352L
tp120
sL6339L
(F128.0
L4224352L
tp121
sL26823L
(F4.0
L4224352L
tp122
sL20681L
(F85.32213358072372
L4224352L
tp123
sL10444L
(F11949.584045584046
L4224352L
tp124
sL6352L
(F32.0
L4224352L
tp125
sL28880L
(F1.0
L4224352L
tp126
sL10451L
(F31068.91851851852
L4224352L
tp127
sL24787L
(F8.0
L4224352L
tp128
sL8404L
(F38836.148148148146
L4224352L
tp129
sL18646L
(F2.0
L4224352L
tp130
sL6359L
(F64.0
L4224352L
tp131
sL24792L
(F1.3333333333333333
L4224352L
tp132
sL12507L
(F4.0
L4224352L
tp133
sL24797L
(F8.0
L4224352L
tp134
sL12511L
(F1.3333333333333333
L4224352L
tp135
sL20704L
(F56.881422387149144
L4224352L
tp136
sL22752L
(F32.0
L4224352L
tp137
sL26848L
(F2.0
L4224352L
tp138
sL6370L
(F128.0
L4224352L
tp139
sL20709L
(F170.64426716144743
L4224352L
tp140
sL12519L
(F4.0
L4224352L
tp141
sL20712L
(F85.32213358072372
L4224352L
tp142
sL10472L
(F62137.83703703704
L4224352L
tp143
sL8427L
(F77672.29629629629
L4224352L
tp144
sL12525L
(F8.0
L4224352L
tp145
sL8432L
(F34521.02057613169
L4224352L
tp146
sL6385L
(F64.0
L4224352L
tp147
sL14577L
(F2.0
L4224352L
tp148
sL10483L
(F31068.91851851852
L4224352L
tp149
sL12531L
(F16.0
L4224352L
tp150
sL20724L
(F24.377752451635345
L4224352L
tp151
sL26871L
(F4.0
L4224352L
tp152
sL6397L
(F64.0
L4224352L
tp153
sL18685L
(F4.0
L4224352L
tp154
sL8447L
(F51781.53086419753
L4224352L
tp155
sL20738L
(F48.75550490327069
L4224352L
tp156
sL22788L
(F34.68752876813453
L4224352L
tp157
sL12548L
(F32.0
L4224352L
tp158
sL8452L
(F103563.06172839506
L4224352L
tp159
sL14597L
(F1.0
L4224352L
tp160
sL6407L
(F64.0
L4224352L
tp161
sL10504L
(F124275.67407407408
L4224352L
tp162
sL22793L
(F1.0
L4224352L
tp163
sL8464L
(F103563.06172839506
L4224352L
tp164
sL20752L
(F32768.0
L4224352L
tp165
sL22800L
(F1.0
L4224352L
tp166
sL18705L
(F2.0
L4224352L
tp167
sL12568L
(F8.0
L4224352L
tp168
sL10520L
(F62137.83703703704
L4224352L
tp169
sL28953L
(F2.0
L4224352L
tp170
sL26912L
(F1.0
L4224352L
tp171
sL28960L
(F10.666666666666666
L4224352L
tp172
sL6433L
(F32.0
L4224352L
tp173
sL20769L
(F32768.0
L4224352L
tp174
sL10532L
(F69042.04115226338
L4224352L
tp175
sL20777L
(F26214.4
L4224352L
tp176
sL8490L
(F414252.2469135802
L4224352L
tp177
sL6444L
(F64.0
L4224352L
tp178
sL26926L
(F2.0
L4224352L
tp179
sL20786L
(F20164.923076923078
L4224352L
tp180
sL26931L
(F2.0
L4224352L
tp181
sL12600L
(F4.0
L4224352L
tp182
sL10553L
(F138084.08230452676
L4224352L
tp183
sL28986L
(F1.2192092050890302
L4224352L
tp184
sL8509L
(F414252.2469135802
L4224352L
tp185
sL14653L
(F2.0
L4224352L
tp186
sL20797L
(F24966.095238095237
L4224352L
tp187
sL12608L
(F32.0
L4224352L
tp188
sL28995L
(F4.0
L4224352L
tp189
sL10564L
(F2339.3045384207553
L4224352L
tp190
sL8518L
(F1657008.987654321
L4224352L
tp191
sL20808L
(F49932.19047619047
L4224352L
tp192
sL22858L
(F2.0
L4224352L
tp193
sL8523L
(F331401.7975308642
L4224352L
tp194
sL18767L
(F4.0
L4224352L
tp195
sL12624L
(F2.0
L4224352L
tp196
sL20816L
(F927.4592424446587
L4224352L
tp197
sL14673L
(F1.0
L4224352L
tp198
sL29010L
(F8.0
L4224352L
tp199
sL22867L
(F4.0
L4224352L
tp200
sL20822L
(F59.975959664903456
L4224352L
tp201
sL29016L
(F16.0
L4224352L
tp202
sL10589L
(F537.1469457797457
L4224352L
tp203
sL29023L
(F6.4
L4224352L
tp204
sL18788L
(F2.0
L4224352L
tp205
sL6501L
(F16.0
L4224352L
tp206
sL8549L
(F3314017.975308642
L4224352L
tp207
sL10602L
(F1072.2084466524946
L4224352L
tp208
sL29036L
(F2.4615384615384617
L4224352L
tp209
sL22894L
(F8.0
L4224352L
tp210
sL12656L
(F1.0
L4224352L
tp211
sL6527L
(F16.0
L4224352L
tp212
sL8576L
(F6628035.950617284
L4224352L
tp213
sL18816L
(F2.0
L4224352L
tp214
sL12677L
(F2.0
L4224352L
tp215
sL6534L
(F1.7777777777777777
L4224352L
tp216
sL14728L
(F2.0
L4224352L
tp217
sL8585L
(F487579.6561373634
L4224352L
tp218
sL22922L
(F4.0
L4224352L
tp219
sL12683L
(F4.0
L4224352L
tp220
sL10636L
(F1104672.658436214
L4224352L
tp221
sL20878L
(F17.343764384067264
L4224352L
tp222
sL12688L
(F1.3333333333333333
L4224352L
tp223
sL18832L
(F1.0
L4224352L
tp224
sL29074L
(F4.923076923076923
L4224352L
tp225
sL8595L
(F471327.00093278463
L4224352L
tp226
sL14748L
(F1.0
L4224352L
tp227
sL10654L
(F38756.31260430079
L4224352L
tp228
sL18848L
(F2.0
L4224352L
tp229
sL8608L
(F5302428.760493827
L4224352L
tp230
sL10659L
(F7764.030947446081
L4224352L
tp231
sL6564L
(F2.3703703703703702
L4224352L
tp232
sL29092L
(F2.0
L4224352L
tp233
sL20901L
(F34.68752876813453
L4224352L
tp234
sL6571L
(F7.111111111111111
L4224352L
tp235
sL22956L
(F2.6666666666666665
L4224352L
tp236
sL16814L
(F4.0
L4224352L
tp237
sL16819L
(F1.3333333333333333
L4224352L
tp238
sL29110L
(F4.0
L4224352L
tp239
sL29115L
(F2.6666666666666665
L4224352L
tp240
sL8636L
(F2651214.3802469135
L4224352L
tp241
sL6588L
(F2.407995296884186
L4224352L
tp242
sL10685L
(F15528.061894892162
L4224352L
tp243
sL25024L
(F1.0
L4224352L
tp244
sL20928L
(F32768.0
L4224352L
tp245
sL14784L
(F1.0
L4224352L
tp246
sL12736L
(F1.0
L4224352L
tp247
sL27073L
(F1.0
L4224352L
tp248
sL20933L
(F8738.133333333333
L4224352L
tp249
sL8646L
(F5302428.760493827
L4224352L
tp250
sL10696L
(F20704.08252652288
L4224352L
tp251
sL20940L
(F65536.0
L4224352L
tp252
sL29132L
(F2.2857142857142856
L4224352L
tp253
sL27088L
(F1.0
L4224352L
tp254
sL6609L
(F9.142857142857142
L4224352L
tp255
sL10708L
(F62112.24757956865
L4224352L
tp256
sL20951L
(F5349.877551020408
L4224352L
tp257
sL29143L
(F5.333333333333333
L4224352L
tp258
sL6619L
(F2.782608695652174
L4224352L
tp259
sL12766L
(F2.0
L4224352L
tp260
sL8672L
(F2651214.3802469135
L4224352L
tp261
sL16864L
(F1.0
L4224352L
tp262
sL20960L
(F87381.33333333333
L4224352L
tp263
sL25056L
(F2.0
L4224352L
tp264
sL10721L
(F124224.4951591373
L4224352L
tp265
sL6626L
(F4.7407407407407405
L4224352L
tp266
sL8676L
(F5302428.760493827
L4224352L
tp267
sL10733L
(F124224.4951591373
L4224352L
tp268
sL12781L
(F4.0
L4224352L
tp269
sL20976L
(F32768.0
L4224352L
tp270
sL8688L
(F10604857.520987654
L4224352L
tp271
sL29168L
(F10.666666666666666
L4224352L
tp272
sL18932L
(F4.0
L4224352L
tp273
sL6649L
(F9.481481481481481
L4224352L
tp274
sL10745L
(F496897.9806365492
L4224352L
tp275
sL27129L
(F2.0
L4224352L
tp276
sL25082L
(F1.0
L4224352L
tp277
sL8699L
(F21209715.04197531
L4224352L
tp278
sL12795L
(F1.6
L4224352L
tp279
sL20992L
(F32768.0
L4224352L
tp280
sL23041L
(F5.333333333333333
L4224352L
tp281
sL10757L
(F331265.3204243661
L4224352L
tp282
sL8710L
(F42419430.08395062
L4224352L
tp283
sL29190L
(F8.0
L4224352L
tp284
sL27149L
(F1.0
L4224352L
tp285
sL21008L
(F32768.0
L4224352L
tp286
sL6672L
(F18.962962962962962
L4224352L
tp287
sL8720L
(F4113399.2808679384
L4224352L
tp288
sL23057L
(F10.666666666666666
L4224352L
tp289
sL10777L
(F35492.712902610656
L4224352L
tp290
sL29210L
(F16.0
L4224352L
tp291
sL18971L
(F2.0
L4224352L
tp292
sL10780L
(F2490.258027958027
L4224352L
tp293
sL12829L
(F8.0
L4224352L
tp294
sL29215L
(F4.0
L4224352L
tp295
sL21024L
(F16384.0
L4224352L
tp296
sL8739L
(F4392950.688305565
L4224352L
tp297
sL23075L
(F5.333333333333333
L4224352L
tp298
sL10789L
(F193917394.66948855
L4224352L
tp299
sL6695L
(F37.925925925925924
L4224352L
tp300
sL14888L
(F2.0
L4224352L
tp301
sL8745L
(F19329.54722403965
L4224352L
tp302
sL21033L
(F32768.0
L4224352L
tp303
sL27182L
(F2.0
L4224352L
tp304
sL14896L
(F1.3333333333333333
L4224352L
tp305
sL29232L
(F8.0
L4224352L
tp306
sL12849L
(F4.0
L4224352L
tp307
sL18995L
(F1.0
L4224352L
tp308
sL21044L
(F65536.0
L4224352L
tp309
sL10805L
(F387834789.3389771
L4224352L
tp310
sL8758L
(F38756.31260430079
L4224352L
tp311
sL16951L
(F2.0
L4224352L
tp312
sL19002L
(F8.0
L4224352L
tp313
sL21051L
(F131072.0
L4224352L
tp314
sL27195L
(F4.0
L4224352L
tp315
sL16956L
(F1.0
L4224352L
tp316
sL29249L
(F4.571428571428571
L4224352L
tp317
sL6722L
(F75.85185185185185
L4224352L
tp318
sL21060L
(F65536.0
L4224352L
tp319
sL10824L
(F775669578.6779542
L4224352L
tp320
sL25166L
(F4.0
L4224352L
tp321
sL21073L
(F131072.0
L4224352L
tp322
sL8794L
(F77512.62520860157
L4224352L
tp323
sL19036L
(F16.0
L4224352L
tp324
sL6749L
(F151.7037037037037
L4224352L
tp325
sL10845L
(F1551339157.3559084
L4224352L
tp326
sL27229L
(F8.0
L4224352L
tp327
sL21087L
(F262144.0
L4224352L
tp328
sL25184L
(F44.0
L4224352L
tp329
sL12896L
(F8.0
L4224352L
tp330
sL12901L
(F10.666666666666666
L4224352L
tp331
sL23141L
(F2.6666666666666665
L4224352L
tp332
sL10858L
(F344742034.9679796
L4224352L
tp333
sL12906L
(F6.4
L4224352L
tp334
sL21098L
(F262144.0
L4224352L
tp335
sL19056L
(F8.0
L4224352L
tp336
sL27249L
(F4.0
L4224352L
tp337
sL21109L
(F1048576.0
L4224352L
tp338
sL6776L
(F151.7037037037037
L4224352L
tp339
sL12920L
(F2.0
L4224352L
tp340
sL12923L
(F1.3333333333333333
L4224352L
tp341
sL29309L
(F9.142857142857142
L4224352L
tp342
sL21119L
(F524288.0
L4224352L
tp343
sL23168L
(F8.0
L4224352L
tp344
sL6786L
(F606.8148148148148
L4224352L
tp345
sL17029L
(F4.0
L4224352L
tp346
sL21128L
(F74898.28571428571
L4224352L
tp347
sL10891L
(F477335125.34027946
L4224352L
tp348
sL19087L
(F1.620253164556962
L4224352L
tp349
sL8848L
(F414252.2469135802
L4224352L
tp350
sL10900L
(F1551339157.3559084
L4224352L
tp351
sL12948L
(F2.6666666666666665
L4224352L
tp352
sL29333L
(F18.285714285714285
L4224352L
tp353
sL17049L
(F2.0
L4224352L
tp354
sL6816L
(F605.4844047457933
L4224352L
tp355
sL8864L
(F6059918.583421517
L4224352L
tp356
sL19104L
(F16.0
L4224352L
tp357
sL21152L
(F32768.0
L4224352L
tp358
sL29344L
(F11.301989695833063
L4224352L
tp359
sL25250L
(F22.0
L4224352L
tp360
sL8869L
(F12119837.166843034
L4224352L
tp361
sL10919L
(F3102678314.711817
L4224352L
tp362
sL12970L
(F2.4615384615384617
L4224352L
tp363
sL27308L
(F8.0
L4224352L
tp364
sL29358L
(F26.5596757852077
L4224352L
tp365
sL21168L
(F32768.0
L4224352L
tp366
sL10929L
(F886479518.4890904
L4224352L
tp367
sL19121L
(F32.0
L4224352L
tp368
sL23221L
(F2.0
L4224352L
tp369
sL29369L
(F19.47433325904465
L4224352L
tp370
sL6843L
(F1213.6296296296296
L4224352L
tp371
sL19133L
(F64.0
L4224352L
tp372
sL21184L
(F32768.0
L4224352L
tp373
sL27329L
(F4.0
L4224352L
tp374
sL29377L
(F73.14285714285714
L4224352L
tp375
sL29382L
(F146.28571428571428
L4224352L
tp376
sL8903L
(F6059918.583421517
L4224352L
tp377
sL19148L
(F128.0
L4224352L
tp378
sL29391L
(F292.57142857142856
L4224352L
tp379
sL13008L
(F16.0
L4224352L
tp380
sL21200L
(F32768.0
L4224352L
tp381
sL6866L
(F2427.259259259259
L4224352L
tp382
sL10964L
(F2427.259259259259
L4224352L
tp383
sL21207L
(F65536.0
L4224352L
tp384
sL27353L
(F2.6666666666666665
L4224352L
tp385
sL13020L
(F32.0
L4224352L
tp386
sL10974L
(F1618.1728395061727
L4224352L
tp387
sL21215L
(F43690.666666666664
L4224352L
tp388
sL13024L
(F8.0
L4224352L
tp389
sL19168L
(F2.0
L4224352L
tp390
sL6882L
(F4854.518518518518
L4224352L
tp391
sL27365L
(F5.333333333333333
L4224352L
tp392
sL17126L
(F4.0
L4224352L
tp393
sL25320L
(F44.0
L4224352L
tp394
sL8938L
(F12119837.166843034
L4224352L
tp395
sL21232L
(F32768.0
L4224352L
tp396
sL29433L
(F585.1428571428571
L4224352L
tp397
sL11002L
(F3076.0678087203705
L4224352L
tp398
sL17146L
(F2.0
L4224352L
tp399
sL21243L
(F65536.0
L4224352L
tp400
sL19197L
(F4.0
L4224352L
tp401
sL27389L
(F5.333333333333333
L4224352L
tp402
sL8958L
(F6059918.583421517
L4224352L
tp403
sL29438L
(F390.0952380952381
L4224352L
tp404
sL21254L
(F131072.0
L4224352L
tp405
sL13063L
(F16.0
L4224352L
tp406
sL27400L
(F3.2
L4224352L
tp407
sL6922L
(F1941.8074074074075
L4224352L
tp408
sL27403L
(F1.2307692307692308
L4224352L
tp409
sL21261L
(F262144.0
L4224352L
tp410
sL19216L
(F4.0
L4224352L
tp411
sL29461L
(F1170.2857142857142
L4224352L
tp412
sL21270L
(F131072.0
L4224352L
tp413
sL27416L
(F10.666666666666666
L4224352L
tp414
sL11035L
(F1657008.987654321
L4224352L
tp415
sL13088L
(F1.0
L4224352L
tp416
sL21281L
(F262144.0
L4224352L
tp417
sL8999L
(F12119837.166843034
L4224352L
tp418
sL17192L
(F2.0
L4224352L
tp419
sL19240L
(F42.666666666666664
L4224352L
tp420
sL25384L
(F3.384615384615385
L4224352L
tp421
sL21291L
(F131072.0
L4224352L
tp422
sL27440L
(F1.0
L4224352L
tp423
sL11059L
(F3314017.975308642
L4224352L
tp424
sL21302L
(F262144.0
L4224352L
tp425
sL9021L
(F6059918.583421517
L4224352L
tp426
sL29503L
(F780.1904761904761
L4224352L
tp427
sL17216L
(F1.0
L4224352L
tp428
sL21312L
(F131072.0
L4224352L
tp429
sL25408L
(F22.0
L4224352L
tp430
sL11073L
(F6628035.950617284
L4224352L
tp431
sL19272L
(F32.0
L4224352L
tp432
sL25416L
(F44.0
L4224352L
tp433
sL11081L
(F13256071.901234567
L4224352L
tp434
sL13130L
(F2.0
L4224352L
tp435
sL11088L
(F26512143.802469134
L4224352L
tp436
sL21328L
(F1927.5294117647059
L4224352L
tp437
sL29528L
(F2340.5714285714284
L4224352L
tp438
sL11099L
(F10604857.520987654
L4224352L
tp439
sL21340L
(F3855.0588235294117
L4224352L
tp440
sL11105L
(F5302428.760493827
L4224352L
tp441
sL17250L
(F1.3333333333333333
L4224352L
tp442
sL19302L
(F4.0
L4224352L
tp443
sL9064L
(F12119837.166843034
L4224352L
tp444
sL11115L
(F10604857.520987654
L4224352L
tp445
sL17260L
(F4.0
L4224352L
tp446
sL13167L
(F1.8285714285714285
L4224352L
tp447
sL7024L
(F1849.158999904124
L4224352L
tp448
sL11121L
(F5891587.5116598075
L4224352L
tp449
sL17270L
(F8.0
L4224352L
tp450
sL13174L
(F2.0
L4224352L
tp451
sL27511L
(F2.0
L4224352L
tp452
sL9085L
(F6059918.583421517
L4224352L
tp453
sL11133L
(F9221615.235641439
L4224352L
tp454
sL7038L
(F9709.037037037036
L4224352L
tp455
sL23424L
(F1.0
L4224352L
tp456
sL25472L
(F44.0
L4224352L
tp457
sL11142L
(F28279620.055967078
L4224352L
tp458
sL11146L
(F6954004.931795184
L4224352L
tp459
sL17290L
(F16.0
L4224352L
tp460
sL21391L
(F3383.3985303570753
L4224352L
tp461
sL27535L
(F4.0
L4224352L
tp462
sL17296L
(F10.666666666666666
L4224352L
tp463
sL19344L
(F1.0
L4224352L
tp464
sL29585L
(F4681.142857142857
L4224352L
tp465
sL11155L
(F42419430.08395062
L4224352L
tp466
sL19350L
(F2.0
L4224352L
tp467
sL11159L
(F84838860.16790123
L4224352L
tp468
sL21400L
(F5436.502303727481
L4224352L
tp469
sL23451L
(F2.0
L4224352L
tp470
sL11167L
(F169677720.33580247
L4224352L
tp471
sL23456L
(F4.0
L4224352L
tp472
sL27552L
(F5.333333333333333
L4224352L
tp473
sL11174L
(F124224.4951591373
L4224352L
tp474
sL9127L
(F12119837.166843034
L4224352L
tp475
sL19368L
(F4.0
L4224352L
tp476
sL29610L
(F2340.5714285714284
L4224352L
tp477
sL23469L
(F1.3333333333333333
L4224352L
tp478
sL5040L
(F1.0
L4224352L
tp479
sL21424L
(F15420.235294117647
L4224352L
tp480
sL27568L
(F2.0
L4224352L
tp481
sL11186L
(F248448.9903182746
L4224352L
tp482
sL29619L
(F9362.285714285714
L4224352L
tp483
sL19384L
(F8.0
L4224352L
tp484
sL21433L
(F30840.470588235294
L4224352L
tp485
sL9149L
(F6059918.583421517
L4224352L
tp486
sL11198L
(F496897.9806365492
L4224352L
tp487
sL21438L
(F61680.94117647059
L4224352L
tp488
sL5056L
(F2.0
L4224352L
tp489
sL25536L
(F44.0
L4224352L
tp490
sL21442L
(F30840.470588235294
L4224352L
tp491
sL27586L
(F1.032258064516129
L4224352L
tp492
sL11203L
(F31056.123789784324
L4224352L
tp493
sL5061L
(F1.0
L4224352L
tp494
sL19402L
(F16.0
L4224352L
tp495
sL21451L
(F61680.94117647059
L4224352L
tp496
sL11220L
(F62112.24757956865
L4224352L
tp497
sL21464L
(F30840.470588235294
L4224352L
tp498
sL27608L
(F3.2
L4224352L
tp499
sL11225L
(F62112.24757956865
L4224352L
tp500
sL21473L
(F61680.94117647059
L4224352L
tp501
sL9192L
(F12119837.166843034
L4224352L
tp502
sL19432L
(F32.0
L4224352L
tp503
sL27624L
(F4.0
L4224352L
tp504
sL17389L
(F32.0
L4224352L
tp505
sL21489L
(F30840.470588235294
L4224352L
tp506
sL19443L
(F2.0
L4224352L
tp507
sL27639L
(F8.0
L4224352L
tp508
sL29692L
(F36.50013923698134
L4224352L
tp509
sL21501L
(F10280.156862745098
L4224352L
tp510
sL9214L
(F6059918.583421517
L4224352L
tp511
sL27648L
(F10.666666666666666
L4224352L
tp512
sL19459L
(F2.0
L4224352L
tp513
sL11272L
(F15528.061894892162
L4224352L
tp514
sL25608L
(F44.0
L4224352L
tp515
sL7178L
(F4854.518518518518
L4224352L
tp516
sL21514L
(F20560.313725490196
L4224352L
tp517
sL17420L
(F3.5555555555555554
L4224352L
tp518
sL21519L
(F41120.62745098039
L4224352L
tp519
sL29711L
(F59.91862857142857
L4224352L
tp520
sL27666L
(F32.0
L4224352L
tp521
sL21523L
(F20560.313725490196
L4224352L
tp522
sL21532L
(F4299.610875745805
L4224352L
tp523
sL29728L
(F129.8063877197326
L4224352L
tp524
sL21537L
(F15420.235294117647
L4224352L
tp525
sL19491L
(F1.0
L4224352L
tp526
sL29733L
(F5.568645778013808
L4224352L
tp527
sL21542L
(F30840.470588235294
L4224352L
tp528
sL9256L
(F12119837.166843034
L4224352L
tp529
sL27690L
(F21.333333333333332
L4224352L
tp530
sL21547L
(F61680.94117647059
L4224352L
tp531
sL7212L
(F9709.037037037036
L4224352L
tp532
sL25644L
(F22.0
L4224352L
tp533
sL21551L
(F30840.470588235294
L4224352L
tp534
sL19504L
(F1.0
L4224352L
tp535
sL29744L
(F585.1428571428571
L4224352L
tp536
sL11315L
(F253279862.4254544
L4224352L
tp537
sL17459L
(F21.333333333333332
L4224352L
tp538
sL29755L
(F292.57142857142856
L4224352L
tp539
sL9278L
(F6059918.583421517
L4224352L
tp540
sL11328L
(F620535662.9423633
L4224352L
tp541
sL7232L
(F4854.518518518518
L4224352L
tp542
sL21568L
(F16.0
L4224352L
tp543
sL23616L
(F1.0
L4224352L
tp544
sL29760L
(F585.1428571428571
L4224352L
tp545
sL29765L
(F234.05714285714285
L4224352L
tp546
sL17479L
(F10.666666666666666
L4224352L
tp547
sL21576L
(F32.0
L4224352L
tp548
sL11341L
(F1241071325.8847265
L4224352L
tp549
sL29775L
(F585.1428571428571
L4224352L
tp550
sL21584L
(F64.0
L4224352L
tp551
sL27728L
(F8.0
L4224352L
tp552
sL19543L
(F2.0
L4224352L
tp553
sL21592L
(F32.0
L4224352L
tp554
sL29785L
(F4.571428571428571
L4224352L
tp555
sL11356L
(F9709.037037037036
L4224352L
tp556
sL27742L
(F16.0
L4224352L
tp557
sL29791L
(F4.4159121345607995
L4224352L
tp558
sL25696L
(F44.0
L4224352L
tp559
sL7269L
(F9709.037037037036
L4224352L
tp560
sL17512L
(F10.666666666666666
L4224352L
tp561
sL9321L
(F12119837.166843034
L4224352L
tp562
sL29803L
(F390.0952380952381
L4224352L
tp563
sL11377L
(F19418.074074074073
L4224352L
tp564
sL29812L
(F780.1904761904761
L4224352L
tp565
sL27766L
(F32.0
L4224352L
tp566
sL29814L
(F18.285714285714285
L4224352L
tp567
sL7289L
(F4854.518518518518
L4224352L
tp568
sL9342L
(F6059918.583421517
L4224352L
tp569
sL29822L
(F5.821864416190106
L4224352L
tp570
sL17536L
(F8.0
L4224352L
tp571
sL21632L
(F16.0
L4224352L
tp572
sL11393L
(F6472.691358024691
L4224352L
tp573
sL27781L
(F3.2
L4224352L
tp574
sL29830L
(F4681.142857142857
L4224352L
tp575
sL21640L
(F32.0
L4224352L
tp576
sL27786L
(F1.0
L4224352L
tp577
sL21648L
(F64.0
L4224352L
tp578
sL25744L
(F44.0
L4224352L
tp579
sL27792L
(F1.0
L4224352L
tp580
sL21656L
(F32.0
L4224352L
tp581
sL17564L
(F2.6666666666666665
L4224352L
tp582
sL27804L
(F2.0
L4224352L
tp583
sL7329L
(F9709.037037037036
L4224352L
tp584
sL17573L
(F5.333333333333333
L4224352L
tp585
sL9384L
(F12119837.166843034
L4224352L
tp586
sL27817L
(F1.3333333333333333
L4224352L
tp587
sL19626L
(F4.0
L4224352L
tp588
sL29867L
(F9362.285714285714
L4224352L
tp589
sL19631L
(F2.0
L4224352L
tp590
sL19636L
(F4.0
L4224352L
tp591
sL7349L
(F4854.518518518518
L4224352L
tp592
sL17592L
(F2.0
L4224352L
tp593
sL19641L
(F1.0
L4224352L
tp594
sL9406L
(F6059918.583421517
L4224352L
tp595
sL19648L
(F1.0
L4224352L
tp596
sL21696L
(F16.0
L4224352L
tp597
sL29894L
(F4.923076923076923
L4224352L
tp598
sL25801L
(F22.0
L4224352L
tp599
sL27851L
(F2.6666666666666665
L4224352L
tp600
sL29899L
(F16.0
L4224352L
tp601
sL19675L
(F2.0
L4224352L
tp602
sL27871L
(F1.3333333333333333
L4224352L
tp603
sL19680L
(F1.0178926441351888
L4224352L
tp604
sL29920L
(F1.0
L4224352L
tp605
sL21736L
(F16.0
L4224352L
tp606
sL9449L
(F12119837.166843034
L4224352L
tp607
sL11502L
(F38836.148148148146
L4224352L
tp608
sL17646L
(F2.1333333333333333
L4224352L
tp609
sL7407L
(F9709.037037037036
L4224352L
tp610
sL11507L
(F3.5555555555555554
L4224352L
tp611
sL11518L
(F7.111111111111111
L4224352L
tp612
sL9471L
(F6059918.583421517
L4224352L
tp613
sL17664L
(F21.333333333333332
L4224352L
tp614
sL19712L
(F2.0
L4224352L
tp615
sL25856L
(F44.0
L4224352L
tp616
sL7427L
(F4854.518518518518
L4224352L
tp617
sL23812L
(F2.0
L4224352L
tp618
sL27909L
(F2.6666666666666665
L4224352L
tp619
sL19724L
(F4.0
L4224352L
tp620
sL11533L
(F169677720.33580247
L4224352L
tp621
sL23821L
(F1.0
L4224352L
tp622
sL11538L
(F96958697.33474427
L4224352L
tp623
sL29974L
(F2.0
L4224352L
tp624
sL19736L
(F8.0
L4224352L
tp625
sL21784L
(F16.0
L4224352L
tp626
sL27929L
(F1.3333333333333333
L4224352L
tp627
sL19742L
(F16.0
L4224352L
tp628
sL29984L
(F1.3333333333333333
L4224352L
tp629
sL11553L
(F339355440.67160493
L4224352L
tp630
sL19748L
(F32.0
L4224352L
tp631
sL11558L
(F678710881.3432099
L4224352L
tp632
sL7464L
(F9709.037037037036
L4224352L
tp633
sL9513L
(F12119837.166843034
L4224352L
tp634
sL19754L
(F64.0
L4224352L
tp635
sL17712L
(F4.0
L4224352L
tp636
sL11571L
(F19418.074074074073
L4224352L
tp637
sL30006L
(F1.3333333333333333
L4224352L
tp638
sL7484L
(F4854.518518518518
L4224352L
tp639
sL9535L
(F6059918.583421517
L4224352L
tp640
sL23872L
(F1.0
L4224352L
tp641
sL27971L
(F2.6666666666666665
L4224352L
tp642
sL11591L
(F10604857.520987654
L4224352L
tp643
sL19784L
(F4.0
L4224352L
tp644
sL21832L
(F16.0
L4224352L
tp645
sL25928L
(F2.0
L4224352L
tp646
sL21834L
(F32.0
L4224352L
tp647
sL11600L
(F4854.518518518518
L4224352L
tp648
sL19796L
(F8.0
L4224352L
tp649
sL23894L
(F2.0
L4224352L
tp650
sL27991L
(F1.3333333333333333
L4224352L
tp651
sL19802L
(F16.0
L4224352L
tp652
sL17755L
(F8.0
L4224352L
tp653
sL17760L
(F16.0
L4224352L
tp654
sL19808L
(F32.0
L4224352L
tp655
sL30048L
(F1.0
L4224352L
tp656
sL17764L
(F32.0
L4224352L
tp657
sL7524L
(F9709.037037037036
L4224352L
tp658
sL11624L
(F9709.037037037036
L4224352L
tp659
sL25960L
(F3.666666666666667
L4224352L
tp660
sL9578L
(F12119837.166843034
L4224352L
tp661
sL19818L
(F64.0
L4224352L
tp662
sL30060L
(F2.0
L4224352L
tp663
sL13680L
(F4.0
L4224352L
tp664
sL23920L
(F1.3333333333333333
L4224352L
tp665
sL17780L
(F64.0
L4224352L
tp666
sL19828L
(F128.0
L4224352L
tp667
sL11637L
(F19418.074074074073
L4224352L
tp668
sL21878L
(F32.0
L4224352L
tp669
sL7544L
(F4854.518518518518
L4224352L
tp670
sL11642L
(F496897.9806365492
L4224352L
tp671
sL13692L
(F1.6
L4224352L
tp672
sL19838L
(F256.0
L4224352L
tp673
sL9599L
(F6059918.583421517
L4224352L
tp674
sL5504L
(F0.6666666666666666
L4224352L
tp675
sL30080L
(F2.0
L4224352L
tp676
sL23937L
(F1.3333333333333333
L4224352L
tp677
sL28033L
(F2.6666666666666665
L4224352L
tp678
sL13704L
(F2.2857142857142856
L4224352L
tp679
sL17800L
(F8.0
L4224352L
tp680
sL19848L
(F512.0
L4224352L
tp681
sL23951L
(F2.6666666666666665
L4224352L
tp682
sL28053L
(F1.3333333333333333
L4224352L
tp683
sL19872L
(F1.0
L4224352L
tp684
sL13729L
(F8.0
L4224352L
tp685
sL21922L
(F18.285714285714285
L4224352L
tp686
sL7589L
(F9709.037037037036
L4224352L
tp687
sL9640L
(F12119837.166843034
L4224352L
tp688
sL21928L
(F51.2
L4224352L
tp689
sL23978L
(F1.3333333333333333
L4224352L
tp690
sL26032L
(F1.0
L4224352L
tp691
sL23987L
(F2.6666666666666665
L4224352L
tp692
sL21940L
(F102.4
L4224352L
tp693
sL17848L
(F16.0
L4224352L
tp694
sL7609L
(F4854.518518518518
L4224352L
tp695
sL26041L
(F2.0
L4224352L
tp696
sL11707L
(F993795.9612730984
L4224352L
tp697
sL9660L
(F6059918.583421517
L4224352L
tp698
sL17853L
(F10.666666666666666
L4224352L
tp699
sL28095L
(F2.6666666666666665
L4224352L
tp700
sL21952L
(F68.26666666666667
L4224352L
tp701
sL26048L
(F1.3333333333333333
L4224352L
tp702
sL21957L
(F204.8
L4224352L
tp703
sL24006L
(F1.3333333333333333
L4224352L
tp704
sL21960L
(F102.4
L4224352L
tp705
sL26059L
(F1.3333333333333333
L4224352L
tp706
sL17870L
(F32.0
L4224352L
tp707
sL13776L
(F16.0
L4224352L
tp708
sL11728L
(F496897.9806365492
L4224352L
tp709
sL26064L
(F1.0
L4224352L
tp710
sL17875L
(F5.333333333333333
L4224352L
tp711
sL28115L
(F1.3333333333333333
L4224352L
tp712
sL21972L
(F29.257142857142856
L4224352L
tp713
sL9685L
(F12119837.166843034
L4224352L
tp714
sL17884L
(F16.0
L4224352L
tp715
sL7651L
(F9709.037037037036
L4224352L
tp716
sL9704L
(F24239674.33368607
L4224352L
tp717
sL13802L
(F6.4
L4224352L
tp718
sL17904L
(F1.0
L4224352L
tp719
sL11760L
(F496897.9806365492
L4224352L
tp720
sL26096L
(F2.0
L4224352L
tp721
sL7672L
(F4854.518518518518
L4224352L
tp722
sL28152L
(F4.0
L4224352L
tp723
sL9723L
(F9695869.733474426
L4224352L
tp724
sL9733L
(F24239674.33368607
L4224352L
tp725
sL26121L
(F2.0
L4224352L
tp726
sL9744L
(F16159782.889124045
L4224352L
tp727
sL22032L
(F36.57142857142857
L4224352L
tp728
sL5648L
(F1.1428571428571428
L4224352L
tp729
sL26131L
(F0.8
L4224352L
tp730
sL28186L
(F8.0
L4224352L
tp731
sL26139L
(F2.0
L4224352L
tp732
sL9760L
(F9695869.733474426
L4224352L
tp733
sL22048L
(F512.0
L4224352L
tp734
sL7714L
(F9709.037037037036
L4224352L
tp735
sL11813L
(F248448.9903182746
L4224352L
tp736
sL20005L
(F2.0
L4224352L
tp737
sL13863L
(F4.571428571428571
L4224352L
tp738
sL9768L
(F96958697.33474427
L4224352L
tp739
sL20010L
(F2.0
L4224352L
tp740
sL28206L
(F4.0
L4224352L
tp741
sL22064L
(F3855.0588235294117
L4224352L
tp742
sL9779L
(F193917394.66948855
L4224352L
tp743
sL26163L
(F4.0
L4224352L
tp744
sL7734L
(F4854.518518518518
L4224352L
tp745
sL20024L
(F8.0
L4224352L
tp746
sL26168L
(F1.3333333333333333
L4224352L
tp747
sL9795L
(F96958697.33474427
L4224352L
tp748
sL22086L
(F3855.0588235294117
L4224352L
tp749
sL28231L
(F4.0
L4224352L
tp750
sL24144L
(F1.0
L4224352L
tp751
sL26192L
(F8.0
L4224352L
tp752
sL13906L
(F8.0
L4224352L
tp753
sL26197L
(F8.0
L4224352L
tp754
sL20056L
(F2.12008281573499
L4224352L
tp755
sL28248L
(F8.0
L4224352L
tp756
sL11866L
(F552336.329218107
L4224352L
tp757
sL26202L
(F1.0
L4224352L
tp758
sL7775L
(F9709.037037037036
L4224352L
tp759
sL26208L
(F1.0
L4224352L
tp760
sL9829L
(F193917394.66948855
L4224352L
tp761
sL18027L
(F2.0
L4224352L
tp762
sL11887L
(F1104672.658436214
L4224352L
tp763
sL28272L
(F1.0
L4224352L
tp764
sL7795L
(F4854.518518518518
L4224352L
tp765
sL18036L
(F2.0
L4224352L
tp766
sL26229L
(F2.0
L4224352L
tp767
sL20087L
(F2.120014233493999
L4224352L
tp768
sL18041L
(F1.0
L4224352L
tp769
sL22137L
(F3747.109857896647
L4224352L
tp770
sL9850L
(F96958697.33474427
L4224352L
tp771
sL28282L
(F1.1428571428571428
L4224352L
tp772
sL18048L
(F1.0
L4224352L
tp773
sL28288L
(F2.0
L4224352L
tp774
sL13953L
(F16.0
L4224352L
tp775
sL20103L
(F16.0
L4224352L
tp776
sL28298L
(F4.0
L4224352L
tp777
sL20112L
(F15.995800643924703
L4224352L
tp778
sL28305L
(F8.0
L4224352L
tp779
sL9879L
(F193917394.66948855
L4224352L
tp780
sL13975L
(F10.666666666666666
L4224352L
tp781
sL24215L
(F2.0
L4224352L
tp782
sL20120L
(F15.995800643924703
L4224352L
tp783
sL7833L
(F9709.037037037036
L4224352L
tp784
sL11934L
(F138084.08230452676
L4224352L
tp785
sL24222L
(F2.0
L4224352L
tp786
sL24227L
(F1.0
L4224352L
tp787
sL9898L
(F387834789.3389771
L4224352L
tp788
sL20138L
(F64.0
L4224352L
tp789
sL26284L
(F1.0
L4224352L
tp790
sL7853L
(F4854.518518518518
L4224352L
tp791
sL11949L
(F303.4074074074074
L4224352L
tp792
sL24240L
(F1.0
L4224352L
tp793
sL20146L
(F128.0
L4224352L
tp794
sL22194L
(F15420.235294117647
L4224352L
tp795
sL7862L
(F9709.037037037036
L4224352L
tp796
sL28342L
(F16.0
L4224352L
tp797
sL22204L
(F30840.470588235294
L4224352L
tp798
sL7871L
(F19418.074074074073
L4224352L
tp799
sL14017L
(F7.111111111111111
L4224352L
tp800
sL20162L
(F256.0
L4224352L
tp801
sL28354L
(F8.0
L4224352L
tp802
sL18115L
(F2.0
L4224352L
tp803
sL22214L
(F61680.94117647059
L4224352L
tp804
sL20168L
(F512.0
L4224352L
tp805
sL7883L
(F25890.765432098764
L4224352L
tp806
sL22221L
(F123361.88235294117
L4224352L
tp807
sL11982L
(F21209715.04197531
L4224352L
tp808
sL5840L
(F2.0
L4224352L
tp809
sL28368L
(F1.0
L4224352L
tp810
sL14033L
(F32.0
L4224352L
tp811
sL22228L
(F246723.76470588235
L4224352L
tp812
sL14038L
(F16.0
L4224352L
tp813
sL9944L
(F4418690.633744856
L4224352L
tp814
sL22234L
(F493447.5294117647
L4224352L
tp815
sL7903L
(F19418.074074074073
L4224352L
tp816
sL12002L
(F42419430.08395062
L4224352L
tp817
sL18149L
(F4.0
L4224352L
tp818
sL20198L
(F128.0
L4224352L
tp819
sL22248L
(F358870.9304812834
L4224352L
tp820
sL12009L
(F19418.074074074073
L4224352L
tp821
sL9963L
(F8837381.267489713
L4224352L
tp822
sL20207L
(F256.0
L4224352L
tp823
sL22262L
(F986895.0588235294
L4224352L
tp824
sL24312L
(F2.0
L4224352L
tp825
sL18169L
(F2.0
L4224352L
tp826
sL28409L
(F2.0
L4224352L
tp827
sL9978L
(F17674762.534979425
L4224352L
tp828
sL26362L
(F2.0
L4224352L
tp829
sL12029L
(F124275.67407407408
L4224352L
tp830
sL7937L
(F77672.29629629629
L4224352L
tp831
sL24321L
(F2.0
L4224352L
tp832
sL26370L
(F2.0
L4224352L
tp833
sL9987L
(F7069905.013991769
L4224352L
tp834
sL12043L
(F62137.83703703704
L4224352L
tp835
sL28429L
(F1.0
L4224352L
tp836
sL22287L
(F657930.0392156863
L4224352L
tp837
sL5904L
(F1.0
L4224352L
tp838
sL10001L
(F14139810.027983539
L4224352L
tp839
sL7957L
(F38836.148148148146
L4224352L
tp840
sL22296L
(F66908.13958125623
L4224352L
tp841
sL12058L
(F606.8148148148148
L4224352L
tp842
sL10011L
(F6427186.376356154
L4224352L
tp843
sL14112L
(F1.0
L4224352L
tp844
sL20256L
(F512.0
L4224352L
tp845
sL12068L
(F1104672.658436214
L4224352L
tp846
sL20267L
(F1024.0
L4224352L
tp847
sL10029L
(F28279620.055967078
L4224352L
tp848
sL24368L
(F1.0
L4224352L
tp849
sL28467L
(F2.0
L4224352L
tp850
sL14134L
(F2.0
L4224352L
tp851
sL20280L
(F33.03225806451613
L4224352L
tp852
sL10046L
(F6939784.062814007
L4224352L
tp853
sL18238L
(F1.3333333333333333
L4224352L
tp854
sL14143L
(F4.0
L4224352L
tp855
sL8002L
(F77672.29629629629
L4224352L
tp856
sL20294L
(F2048.0
L4224352L
tp857
sL22343L
(F13826.90099927887
L4224352L
tp858
sL28487L
(F1.0
L4224352L
tp859
sL18248L
(F4.0
L4224352L
tp860
sL14153L
(F1.6
L4224352L
tp861
sL20298L
(F2048.0
L4224352L
tp862
sL18253L
(F8.0
L4224352L
tp863
sL10063L
(F28279620.055967078
L4224352L
tp864
sL18259L
(F1.2307692307692308
L4224352L
tp865
sL8022L
(F38836.148148148146
L4224352L
tp866
sL20312L
(F32768.0
L4224352L
tp867
sL14169L
(F3.2
L4224352L
tp868
sL12128L
(F1.0
L4224352L
tp869
sL14176L
(F2.6666666666666665
L4224352L
tp870
sL20325L
(F65536.0
L4224352L
tp871
sL10088L
(F207126.1234567901
L4224352L
tp872
sL20334L
(F131072.0
L4224352L
tp873
sL22385L
(F8408.051619369793
L4224352L
tp874
sL28529L
(F2.0
L4224352L
tp875
sL12149L
(F2.0
L4224352L
tp876
sL18294L
(F4.0
L4224352L
tp877
sL20345L
(F262144.0
L4224352L
tp878
sL22395L
(F27653.80199855774
L4224352L
tp879
sL12159L
(F4.0
L4224352L
tp880
sL22400L
(F32768.0
L4224352L
tp881
sL14208L
(F5.333333333333333
L4224352L
tp882
sL10112L
(F38836.148148148146
L4224352L
tp883
sL28549L
(F1.0
L4224352L
tp884
sL20358L
(F524288.0
L4224352L
tp885
sL8071L
(F77672.29629629629
L4224352L
tp886
sL22411L
(F65536.0
L4224352L
tp887
sL18320L
(F8.0
L4224352L
tp888
sL12176L
(F1.3333333333333333
L4224352L
tp889
sL26512L
(F1.0
L4224352L
tp890
sL20370L
(F1048576.0
L4224352L
tp891
sL10135L
(F77672.29629629629
L4224352L
tp892
sL22424L
(F1973790.1176470588
L4224352L
tp893
sL18330L
(F8.0
L4224352L
tp894
sL8091L
(F38836.148148148146
L4224352L
tp895
sL20380L
(F2097152.0
L4224352L
tp896
sL26526L
(F2.0
L4224352L
tp897
sL18335L
(F16.0
L4224352L
tp898
sL12192L
(F1.0
L4224352L
tp899
sL10144L
(F9426540.018655693
L4224352L
tp900
sL14243L
(F1.4545454545454546
L4224352L
tp901
sL26531L
(F1.3333333333333333
L4224352L
tp902
sL26533L
(F4.0
L4224352L
tp903
sL22440L
(F65536.0
L4224352L
tp904
sL26538L
(F1.0
L4224352L
tp905
sL20396L
(F4194304.0
L4224352L
tp906
sL14254L
(F5.333333333333333
L4224352L
tp907
sL28591L
(F2.0
L4224352L
tp908
sL6064L
(F1.0
L4224352L
tp909
sL26544L
(F1.0
L4224352L
tp910
sL20407L
(F8388608.0
L4224352L
tp911
sL22456L
(F1.7777777777777777
L4224352L
tp912
sL22461L
(F7710.117647058823
L4224352L
tp913
sL20414L
(F16777216.0
L4224352L
tp914
sL8128L
(F77672.29629629629
L4224352L
tp915
sL18369L
(F32.0
L4224352L
tp916
sL26561L
(F2.0
L4224352L
tp917
sL12227L
(F2.0
L4224352L
tp918
sL28611L
(F1.0
L4224352L
tp919
sL20423L
(F8388608.0
L4224352L
tp920
sL26567L
(F2.0
L4224352L
tp921
sL12237L
(F4.0
L4224352L
tp922
sL14288L
(F1.0
L4224352L
tp923
sL26576L
(F1.0
L4224352L
tp924
sL20434L
(F16777216.0
L4224352L
tp925
sL10196L
(F9695869.733474426
L4224352L
tp926
sL8148L
(F38836.148148148146
L4224352L
tp927
sL18390L
(F16.0
L4224352L
tp928
sL12248L
(F1.3333333333333333
L4224352L
tp929
sL20444L
(F8388608.0
L4224352L
tp930
sL24541L
(F2.0
L4224352L
tp931
sL12256L
(F1.0
L4224352L
tp932
sL26592L
(F1.0
L4224352L
tp933
sL22498L
(F524288.0
L4224352L
tp934
sL24546L
(F2.0
L4224352L
tp935
sL10211L
(F24239674.33368607
L4224352L
tp936
sL18407L
(F8.0
L4224352L
tp937
sL20455L
(F16777216.0
L4224352L
tp938
sL10216L
(F828504.4938271604
L4224352L
tp939
sL12265L
(F2.0
L4224352L
tp940
sL26601L
(F2.0
L4224352L
tp941
sL28653L
(F2.0
L4224352L
tp942
sL26606L
(F1.3333333333333333
L4224352L
tp943
sL22512L
(F61680.94117647059
L4224352L
tp944
sL20465L
(F8388608.0
L4224352L
tp945
sL12282L
(F1.0
L4224352L
tp946
sL10235L
(F11783175.023319615
L4224352L
tp947
sL26619L
(F2.6666666666666665
L4224352L
tp948
sL18428L
(F1.4545454545454546
L4224352L
tp949
sL20476L
(F16777216.0
L4224352L
tp950
sL14335L
(F2.0
L4224352L
tp951
s.