(dp0
L4608L
(F2.0
L4198896L
VFUN_004011f0
p1
tp2
sL4353L
(F4.0
L4198624L
VFUN_004010e0
p3
tp4
sL4098L
(F4.035467980295566
L4197952L
VFUN_00400e40
p5
tp6
sL4484L
(F4.0
L4198768L
V_INIT_0
p7
tp8
sL3848L
(F8.0
L4197952L
VFUN_00400e40
p9
tp10
sL4236L
(F15.937743190661479
L4197952L
VFUN_00400e40
p11
tp12
sL3853L
(F16.0
L4197952L
VFUN_00400e40
p13
tp14
sL4368L
(F1.0
L4198768L
V_INIT_0
p15
tp16
sL4752L
(F1.0
L4199056L
VFUN_00401290
p17
tp18
sL4241L
(F4.0
L4197952L
VFUN_00400e40
p19
tp20
sL4116L
(F1.0002442002442002
L4197952L
VFUN_00400e40
p21
tp22
sL3863L
(F32.0
L4197952L
VFUN_00400e40
p23
tp24
sL4504L
(F1.3333333333333333
L4198768L
V_INIT_0
p25
tp26
sL3744L
(F4.0
L4197952L
VFUN_00400e40
p27
tp28
sL4512L
(F1.0
L4198816L
VFUN_004011a0
p29
tp30
sL3873L
(F64.0
L4197952L
VFUN_00400e40
p31
tp32
sL4132L
(F15.937743190661479
L4197952L
VFUN_00400e40
p33
tp34
sL4007L
(F1024.0
L4197952L
VFUN_00400e40
p35
tp36
sL3883L
(F128.0
L4197952L
VFUN_00400e40
p37
tp38
sL4016L
(F2048.0
L4197952L
VFUN_00400e40
p39
tp40
sL4402L
(F1.3333333333333333
L4198768L
V_INIT_0
p41
tp42
sL4530L
(F2.0
L4198816L
VFUN_004011a0
p43
tp44
sL4019L
(F682.6666666666666
L4197952L
VFUN_00400e40
p45
tp46
sL4147L
(F17.066666666666666
L4197952L
VFUN_00400e40
p47
tp48
sL4404L
(F2.0
L4198768L
V_INIT_0
p49
tp50
sL3893L
(F256.0
L4197952L
VFUN_00400e40
p51
tp52
sL4414L
(F4.0
L4198768L
V_INIT_0
p53
tp54
sL3648L
(F1.0
L4197952L
VFUN_00400e40
p55
tp56
sL3776L
(F5.333333333333333
L4197952L
VFUN_00400e40
p57
tp58
sL3916L
(F512.0
L4197952L
VFUN_00400e40
p59
tp60
sL4432L
(F1.0
L4198736L
V_FINI_0
p61
tp62
sL4181L
(F2.0
L4197952L
VFUN_00400e40
p63
tp64
sL3160L
(F1.0
L4197464L
V_init
p65
tp66
sL4441L
(F2.0
L4198736L
V_FINI_0
p67
tp68
sL3804L
(F4.0
L4197952L
VFUN_00400e40
p69
tp70
sL4828L
(F2.0
L4199056L
VFUN_00401290
p71
tp72
sL4702L
(F1.0
L4198896L
VFUN_004011f0
p73
tp74
sL4832L
(F1.3333333333333333
L4199056L
VFUN_00401290
p75
tp76
sL4576L
(F2.0
L4198816L
VFUN_004011a0
p77
tp78
sL4320L
(F1.0
L4198624L
VFUN_004010e0
p79
tp80
sL4198L
(F1024.0
L4197952L
VFUN_00400e40
p81
tp82
sL4711L
(F2.0
L4198896L
VFUN_004011f0
p83
tp84
sL3176L
(F2.0
L4197464L
V_init
p85
tp86
sL4202L
(F512.0
L4197952L
VFUN_00400e40
p87
tp88
sL4458L
(F1.0
L4198736L
V_FINI_0
p89
tp90
sL3181L
(F1.0
L4197464L
V_init
p91
tp92
sL4592L
(F1.0
L4198896L
VFUN_004011f0
p93
tp94
sL4464L
(F1.0
L4198768L
V_INIT_0
p95
tp96
sL3700L
(F2.0
L4197952L
VFUN_00400e40
p97
tp98
sL4341L
(F1.3333333333333333
L4198624L
VFUN_004010e0
p99
tp100
sL4854L
(F1.3333333333333333
L4199056L
VFUN_00401290
p101
tp102
sL4343L
(F2.0
L4198624L
VFUN_004010e0
p103
tp104
sL4090L
(F585.1428571428571
L4197952L
VFUN_00400e40
p105
tp106
sL4474L
(F2.0
L4198768L
V_INIT_0
p107
tp108
s.