(dp0
L12288L
(F5.333333333333333
L4206496L
Vclose_stdout
p1
tp2
sL8193L
(F1365.3333333333333
L4200416L
Vmain
p3
tp4
sL22529L
(F32.0
L4216448L
Vxstrtoul
p5
tp6
sL14340L
(F8.0
L4208496L
Vgettext_quote
p7
tp8
sL18438L
(F2.0
L4212720L
Vquotearg_free
p9
tp10
sL20488L
(F3.666666666666667
L4213856L
Vversion_etc_arn
p11
tp12
sL14346L
(F16.0
L4208496L
Vgettext_quote
p13
tp14
sL22542L
(F64.0
L4216448L
Vxstrtoul
p15
tp16
sL14352L
(F32.0
L4208496L
Vgettext_quote
p17
tp18
sL8212L
(F1323.959595959596
L4200416L
Vmain
p19
tp20
sL14362L
(F64.0
L4208496L
Vgettext_quote
p21
tp22
sL26654L
(F4.0
L4220880L
Vstrcoll_loop
p23
tp24
sL18464L
(F1.3333333333333333
L4212720L
Vquotearg_free
p25
tp26
sL26659L
(F0.8888888888888888
L4220880L
Vstrcoll_loop
p27
tp28
sL12323L
(F1.4545454545454546
L4206496L
Vclose_stdout
p29
tp30
sL14372L
(F128.0
L4208496L
Vgettext_quote
p31
tp32
sL8229L
(F2730.6666666666665
L4200416L
Vmain
p33
tp34
sL24613L
(F2.6666666666666665
L4218800L
Vrpl_fflush
p35
tp36
sL16422L
(F32.0
L4208720L
Vquotearg_buffer_restyled
p37
tp38
sL14382L
(F256.0
L4208496L
Vgettext_quote
p39
tp40
sL12334L
(F5.333333333333333
L4206496L
Vclose_stdout
p41
tp42
sL18481L
(F1.3333333333333333
L4212720L
Vquotearg_free
p43
tp44
sL22578L
(F128.0
L4216448L
Vxstrtoul
p45
tp46
sL14392L
(F512.0
L4208496L
Vgettext_quote
p47
tp48
sL26681L
(F2.0
L4220880L
Vstrcoll_loop
p49
tp50
sL24633L
(F1.3333333333333333
L4218800L
Vrpl_fflush
p51
tp52
sL18495L
(F2.6666666666666665
L4212720L
Vquotearg_free
p53
tp54
sL22592L
(F232.52401746724888
L4216448L
Vxstrtoul
p55
tp56
sL8263L
(F5461.333333333333
L4200416L
Vmain
p57
tp58
sL22605L
(F106496.0
L4216448L
Vxstrtoul
p59
tp60
sL14416L
(F1.0
L4208720L
Vquotearg_buffer_restyled
p61
tp62
sL20560L
(F1.0
L4214864L
Vversion_etc_ar
p63
tp64
sL26704L
(F4.0
L4220880L
Vstrcoll_loop
p65
tp66
sL16466L
(F18.285714285714285
L4208720L
Vquotearg_buffer_restyled
p67
tp68
sL22610L
(F35498.666666666664
L4216448L
Vxstrtoul
p69
tp70
sL22615L
(F212992.0
L4216448L
Vxstrtoul
p71
tp72
sL16472L
(F51.2
L4208720L
Vquotearg_buffer_restyled
p73
tp74
sL20569L
(F2.0
L4214864L
Vversion_etc_ar
p75
tp76
sL18522L
(F1.3333333333333333
L4212720L
Vquotearg_free
p77
tp78
sL8284L
(F2730.6666666666665
L4200416L
Vmain
p79
tp80
sL22620L
(F7745.163636363636
L4216448L
Vxstrtoul
p81
tp82
sL20576L
(F1.3333333333333333
L4214864L
Vversion_etc_ar
p83
tp84
sL12384L
(F1.0
L4206688L
Vfadvise
p85
tp86
sL24675L
(F2.6666666666666665
L4218800L
Vrpl_fflush
p87
tp88
sL18531L
(F2.6666666666666665
L4212720L
Vquotearg_free
p89
tp90
sL16484L
(F102.4
L4208720L
Vquotearg_buffer_restyled
p91
tp92
sL12389L
(F2.0
L4206688L
Vfadvise
p93
tp94
sL20587L
(F1.3333333333333333
L4214864L
Vversion_etc_ar
p95
tp96
sL20592L
(F1.0
L4214896L
Vversion_etc_va
p97
tp98
sL16496L
(F68.26666666666667
L4208720L
Vquotearg_buffer_restyled
p99
tp100
sL26736L
(F8.0
L4220880L
Vstrcoll_loop
p101
tp102
sL22644L
(F106496.0
L4216448L
Vxstrtoul
p103
tp104
sL16501L
(F204.8
L4208720L
Vquotearg_buffer_restyled
p105
tp106
sL18550L
(F1.3333333333333333
L4212720L
Vquotearg_free
p107
tp108
sL24695L
(F1.1428571428571428
L4218800L
Vrpl_fflush
p109
tp110
sL16504L
(F102.4
L4208720L
Vquotearg_buffer_restyled
p111
tp112
sL8314L
(F5461.333333333333
L4200416L
Vmain
p113
tp114
sL22653L
(F106496.0
L4216448L
Vxstrtoul
p115
tp116
sL12416L
(F2.0
L4206688L
Vfadvise
p117
tp118
sL16516L
(F29.257142857142856
L4208720L
Vquotearg_buffer_restyled
p119
tp120
sL26768L
(F1.0
L4221072L
Vmemcoll
p121
tp122
sL20624L
(F2.0
L4214896L
Vversion_etc_va
p123
tp124
sL12432L
(F1.0
L4206736L
Vprotect_fd
p125
tp126
sL22673L
(F35498.666666666664
L4216448L
Vxstrtoul
p127
tp128
sL24728L
(F4.0
L4218800L
Vrpl_fflush
p129
tp130
sL22682L
(F212992.0
L4216448L
Vxstrtoul
p131
tp132
sL8348L
(F10922.666666666666
L4200416L
Vmain
p133
tp134
sL12453L
(F2.0
L4206736L
Vprotect_fd
p135
tp136
sL22695L
(F141994.66666666666
L4216448L
Vxstrtoul
p137
tp138
sL20649L
(F2.0
L4214896L
Vversion_etc_va
p139
tp140
sL12459L
(F4.0
L4206736L
Vprotect_fd
p141
tp142
sL22703L
(F106496.0
L4216448L
Vxstrtoul
p143
tp144
sL26799L
(F1.3333333333333333
L4221072L
Vmemcoll
p145
tp146
sL8368L
(F5461.333333333333
L4200416L
Vmain
p147
tp148
sL20659L
(F0.8
L4214896L
Vversion_etc_va
p149
tp150
sL24762L
(F8.0
L4218800L
Vrpl_fflush
p151
tp152
sL20667L
(F2.0
L4214896L
Vversion_etc_va
p153
tp154
sL12477L
(F2.0
L4206736L
Vprotect_fd
p155
tp156
sL16576L
(F36.57142857142857
L4208720L
Vquotearg_buffer_restyled
p157
tp158
sL22723L
(F35498.666666666664
L4216448L
Vxstrtoul
p159
tp160
sL22728L
(F23665.777777777777
L4216448L
Vxstrtoul
p161
tp162
sL12488L
(F2.0
L4206736L
Vprotect_fd
p163
tp164
sL24782L
(F4.0
L4218800L
Vrpl_fflush
p165
tp166
sL16592L
(F512.0
L4208720L
Vquotearg_buffer_restyled
p167
tp168
sL20691L
(F4.0
L4214896L
Vversion_etc_va
p169
tp170
sL14549L
(F2.0
L4208720L
Vquotearg_buffer_restyled
p171
tp172
sL22742L
(F106496.0
L4216448L
Vxstrtoul
p173
tp174
sL8407L
(F10922.666666666666
L4200416L
Vmain
p175
tp176
sL20696L
(F1.3333333333333333
L4214896L
Vversion_etc_va
p177
tp178
sL14554L
(F2.0
L4208720L
Vquotearg_buffer_restyled
p179
tp180
sL16608L
(F3855.0588235294117
L4208720L
Vquotearg_buffer_restyled
p181
tp182
sL6368L
(F1.2655096671413744
L4200416L
Vmain
p183
tp184
sL12512L
(F1.0
L4206816L
Vfreopen_safer
p185
tp186
sL6376L
(F4.0
L4200416L
Vmain
p187
tp188
sL14568L
(F8.0
L4208720L
Vquotearg_buffer_restyled
p189
tp190
sL22762L
(F35498.666666666664
L4216448L
Vxstrtoul
p191
tp192
sL8427L
(F5461.333333333333
L4200416L
Vmain
p193
tp194
sL20720L
(F8.0
L4214896L
Vversion_etc_va
p195
tp196
sL6385L
(F8.0
L4200416L
Vmain
p197
tp198
sL22770L
(F32768.0
L4216448L
Vxstrtoul
p199
tp200
sL24820L
(F8.0
L4218800L
Vrpl_fflush
p201
tp202
sL20725L
(F8.0
L4214896L
Vversion_etc_va
p203
tp204
sL16630L
(F3855.0588235294117
L4208720L
Vquotearg_buffer_restyled
p205
tp206
sL20730L
(F1.0
L4215040L
Vversion_etc
p207
tp208
sL22779L
(F212992.0
L4216448L
Vxstrtoul
p209
tp210
sL6397L
(F3.2
L4200416L
Vmain
p211
tp212
sL20736L
(F1.0
L4215040L
Vversion_etc
p213
tp214
sL18688L
(F1.0
L4212992L
Vquotearg_n_style
p215
tp216
sL22786L
(F106496.0
L4216448L
Vxstrtoul
p217
tp218
sL6406L
(F6.4
L4200416L
Vmain
p219
tp220
sL24840L
(F4.0
L4218800L
Vrpl_fflush
p221
tp222
sL14600L
(F2.12008281573499
L4208720L
Vquotearg_buffer_restyled
p223
tp224
sL12552L
(F2.0
L4206816L
Vfreopen_safer
p225
tp226
sL22795L
(F425984.0
L4216448L
Vxstrtoul
p227
tp228
sL26896L
(F2.0
L4221072L
Vmemcoll
p229
tp230
sL22800L
(F106496.0
L4216448L
Vxstrtoul
p231
tp232
sL12561L
(F4.0
L4206816L
Vfreopen_safer
p233
tp234
sL8467L
(F10922.666666666666
L4200416L
Vmain
p235
tp236
sL20757L
(F2.0
L4215040L
Vversion_etc
p237
tp238
sL12569L
(F8.0
L4206816L
Vfreopen_safer
p239
tp240
sL6430L
(F0.8453858259590826
L4200416L
Vmain
p241
tp242
sL26911L
(F4.0
L4221072L
Vmemcoll
p243
tp244
sL6435L
(F1.2837861662324432
L4200416L
Vmain
p245
tp246
sL22820L
(F35498.666666666664
L4216448L
Vxstrtoul
p247
tp248
sL8487L
(F5461.333333333333
L4200416L
Vmain
p249
tp250
sL14631L
(F2.120014233493999
L4208720L
Vquotearg_buffer_restyled
p251
tp252
sL16681L
(F3747.109857896647
L4208720L
Vquotearg_buffer_restyled
p253
tp254
sL12590L
(F2.6666666666666665
L4206816L
Vfreopen_safer
p255
tp256
sL22830L
(F212992.0
L4216448L
Vxstrtoul
p257
tp258
sL24882L
(F8.0
L4218800L
Vrpl_fflush
p259
tp260
sL6452L
(F2.8444444444444446
L4200416L
Vmain
p261
tp262
sL22837L
(F106496.0
L4216448L
Vxstrtoul
p263
tp264
sL14647L
(F16.0
L4208720L
Vquotearg_buffer_restyled
p265
tp266
sL26944L
(F1.0
L4221248L
Vmemcoll0
p267
tp268
sL14656L
(F15.995800643924703
L4208720L
Vquotearg_buffer_restyled
p269
tp270
sL6465L
(F8.0
L4200416L
Vmain
p271
tp272
sL22850L
(F30427.428571428565
L4216448L
Vxstrtoul
p273
tp274
sL12612L
(F1.1428571428571428
L4206816L
Vfreopen_safer
p275
tp276
sL24902L
(F4.0
L4218800L
Vrpl_fflush
p277
tp278
sL18759L
(F2.0
L4212992L
Vquotearg_n_style
p279
tp280
sL22855L
(F212992.0
L4216448L
Vxstrtoul
p281
tp282
sL14664L
(F15.995800643924703
L4208720L
Vquotearg_buffer_restyled
p283
tp284
sL6474L
(F16.0
L4200416L
Vmain
p285
tp286
sL20812L
(F1.0
L4215040L
Vversion_etc
p287
tp288
sL18766L
(F2.0
L4212992L
Vquotearg_n_style
p289
tp290
sL8527L
(F10922.666666666666
L4200416L
Vmain
p291
tp292
sL18771L
(F1.0
L4213088L
Vquotearg_n_style_mem
p293
tp294
sL12629L
(F16.0
L4206816L
Vfreopen_safer
p295
tp296
sL26966L
(F1.3333333333333333
L4221248L
Vmemcoll0
p297
tp298
sL22870L
(F53248.0
L4216448L
Vxstrtoul
p299
tp300
sL6487L
(F8.0
L4200416L
Vmain
p301
tp302
sL14682L
(F64.0
L4208720L
Vquotearg_buffer_restyled
p303
tp304
sL22875L
(F17749.333333333332
L4216448L
Vxstrtoul
p305
tp306
sL18784L
(F1.0
L4213088L
Vquotearg_n_style_mem
p307
tp308
sL14690L
(F128.0
L4208720L
Vquotearg_buffer_restyled
p309
tp310
sL16738L
(F15420.235294117647
L4208720L
Vquotearg_buffer_restyled
p311
tp312
sL24935L
(F4.0
L4218800L
Vrpl_fflush
p313
tp314
sL12650L
(F32.0
L4206816L
Vfreopen_safer
p315
tp316
sL16748L
(F30840.470588235294
L4208720L
Vquotearg_buffer_restyled
p317
tp318
sL22894L
(F106496.0
L4216448L
Vxstrtoul
p319
tp320
sL6511L
(F11.636363636363637
L4200416L
Vmain
p321
tp322
sL12655L
(F6.095238095238095
L4206816L
Vfreopen_safer
p323
tp324
sL26992L
(F2.0
L4221248L
Vmemcoll0
p325
tp326
sL14706L
(F256.0
L4208720L
Vquotearg_buffer_restyled
p327
tp328
sL12659L
(F128.0
L4206816L
Vfreopen_safer
p329
tp330
sL16758L
(F61680.94117647059
L4208720L
Vquotearg_buffer_restyled
p331
tp332
sL14712L
(F512.0
L4208720L
Vquotearg_buffer_restyled
p333
tp334
sL22905L
(F106496.0
L4216448L
Vxstrtoul
p335
tp336
sL16765L
(F123361.88235294117
L4208720L
Vquotearg_buffer_restyled
p337
tp338
sL16772L
(F246723.76470588235
L4208720L
Vquotearg_buffer_restyled
p339
tp340
sL12677L
(F85.33333333333333
L4206816L
Vfreopen_safer
p341
tp342
sL24969L
(F16.0
L4218800L
Vrpl_fflush
p343
tp344
sL27017L
(F4.0
L4221248L
Vmemcoll0
p345
tp346
sL16778L
(F493447.5294117647
L4208720L
Vquotearg_buffer_restyled
p347
tp348
sL22925L
(F35498.666666666664
L4216448L
Vxstrtoul
p349
tp350
sL6542L
(F11.130434782608695
L4200416L
Vmain
p351
tp352
sL8596L
(F21845.333333333332
L4200416L
Vmain
p353
tp354
sL14742L
(F128.0
L4208720L
Vquotearg_buffer_restyled
p355
tp356
sL12694L
(F10.24
L4206816L
Vfreopen_safer
p357
tp358
sL6551L
(F19.692307692307693
L4200416L
Vmain
p359
tp360
sL22935L
(F212992.0
L4216448L
Vxstrtoul
p361
tp362
sL16792L
(F358870.9304812834
L4208720L
Vquotearg_buffer_restyled
p363
tp364
sL20890L
(F2.0
L4215040L
Vversion_etc
p365
tp366
sL24989L
(F8.0
L4218800L
Vrpl_fflush
p367
tp368
sL22942L
(F106496.0
L4216448L
Vxstrtoul
p369
tp370
sL14751L
(F256.0
L4208720L
Vquotearg_buffer_restyled
p371
tp372
sL27040L
(F1.0
L4221344L
V__libc_csu_init
p373
tp374
sL20898L
(F2.0
L4215040L
Vversion_etc
p375
tp376
sL16806L
(F986895.0588235294
L4208720L
Vquotearg_buffer_restyled
p377
tp378
sL18856L
(F2.0
L4213088L
Vquotearg_n_style_mem
p379
tp380
sL12713L
(F17.066666666666666
L4206816L
Vfreopen_safer
p381
tp382
sL22955L
(F30427.428571428565
L4216448L
Vxstrtoul
p383
tp384
sL12718L
(F31.03030303030303
L4206816L
Vfreopen_safer
p385
tp386
sL22960L
(F212992.0
L4216448L
Vxstrtoul
p387
tp388
sL18865L
(F2.0
L4213088L
Vquotearg_n_style_mem
p389
tp390
sL12723L
(F682.6666666666666
L4206816L
Vfreopen_safer
p391
tp392
sL6580L
(F26.94736842105263
L4200416L
Vmain
p393
tp394
sL12728L
(F341.3333333333333
L4206816L
Vfreopen_safer
p395
tp396
sL16831L
(F657930.0392156863
L4208720L
Vquotearg_buffer_restyled
p397
tp398
sL22975L
(F106496.0
L4216448L
Vxstrtoul
p399
tp400
sL25027L
(F16.0
L4218800L
Vrpl_fflush
p401
tp402
sL16840L
(F66908.13958125623
L4208720L
Vquotearg_buffer_restyled
p403
tp404
sL12752L
(F8.0
L4206816L
Vfreopen_safer
p405
tp406
sL14800L
(F512.0
L4208720L
Vquotearg_buffer_restyled
p407
tp408
sL22995L
(F35498.666666666664
L4216448L
Vxstrtoul
p409
tp410
sL12756L
(F5.333333333333333
L4206816L
Vfreopen_safer
p411
tp412
sL27094L
(F2.0
L4221344L
V__libc_csu_init
p413
tp414
sL25047L
(F8.0
L4218800L
Vrpl_fflush
p415
tp416
sL14811L
(F1024.0
L4208720L
Vquotearg_buffer_restyled
p417
tp418
sL12764L
(F9.142857142857142
L4206816L
Vfreopen_safer
p419
tp420
sL23005L
(F212992.0
L4216448L
Vxstrtoul
p421
tp422
sL27104L
(F1.3333333333333333
L4221344L
V__libc_csu_init
p423
tp424
sL18912L
(F1.0
L4213216L
Vquotearg_char_mem
p425
tp426
sL6626L
(F341.3333333333333
L4200416L
Vmain
p427
tp428
sL23012L
(F106496.0
L4216448L
Vxstrtoul
p429
tp430
sL14824L
(F33.03225806451613
L4208720L
Vquotearg_buffer_restyled
p431
tp432
sL12778L
(F11.636363636363637
L4206816L
Vfreopen_safer
p433
tp434
sL6635L
(F682.6666666666666
L4200416L
Vmain
p435
tp436
sL12784L
(F682.6666666666666
L4206816L
Vfreopen_safer
p437
tp438
sL23025L
(F30427.428571428565
L4216448L
Vxstrtoul
p439
tp440
sL14838L
(F2048.0
L4208720L
Vquotearg_buffer_restyled
p441
tp442
sL23030L
(F212992.0
L4216448L
Vxstrtoul
p443
tp444
sL27126L
(F1.3333333333333333
L4221344L
V__libc_csu_init
p445
tp446
sL16887L
(F13826.90099927887
L4208720L
Vquotearg_buffer_restyled
p447
tp448
sL6648L
(F195.04761904761904
L4200416L
Vmain
p449
tp450
sL14842L
(F2048.0
L4208720L
Vquotearg_buffer_restyled
p451
tp452
sL12796L
(F682.6666666666666
L4206816L
Vfreopen_safer
p453
tp454
sL8704L
(F10922.666666666666
L4200416L
Vmain
p455
tp456
sL8708L
(F43690.666666666664
L4200416L
Vmain
p457
tp458
sL23045L
(F106496.0
L4216448L
Vxstrtoul
p459
tp460
sL25093L
(F16.0
L4218800L
Vrpl_fflush
p461
tp462
sL12808L
(F341.3333333333333
L4206816L
Vfreopen_safer
p463
tp464
sL14856L
(F32768.0
L4208720L
Vquotearg_buffer_restyled
p465
tp466
sL23050L
(F35498.666666666664
L4216448L
Vxstrtoul
p467
tp468
sL8721L
(F12483.047619047618
L4200416L
Vmain
p469
tp470
sL14869L
(F65536.0
L4208720L
Vquotearg_buffer_restyled
p471
tp472
sL12824L
(F256.0
L4206816L
Vfreopen_safer
p473
tp474
sL23069L
(F212992.0
L4216448L
Vxstrtoul
p475
tp476
sL6685L
(F390.0952380952381
L4200416L
Vmain
p477
tp478
sL14878L
(F131072.0
L4208720L
Vquotearg_buffer_restyled
p479
tp480
sL27168L
(F1.0
L4221472L
Vatexit
p481
tp482
sL25120L
(F8.0
L4218800L
Vrpl_fflush
p483
tp484
sL16929L
(F8408.051619369793
L4208720L
Vquotearg_buffer_restyled
p485
tp486
sL23080L
(F106496.0
L4216448L
Vxstrtoul
p487
tp488
sL14889L
(F262144.0
L4208720L
Vquotearg_buffer_restyled
p489
tp490
sL16939L
(F27653.80199855774
L4208720L
Vquotearg_buffer_restyled
p491
tp492
sL27180L
(F2.0
L4221472L
Vatexit
p493
tp494
sL12848L
(F102.4
L4206816L
Vfreopen_safer
p495
tp496
sL16944L
(F32768.0
L4208720L
Vquotearg_buffer_restyled
p497
tp498
sL21040L
(F1.0
L4215344L
Vxmalloc
p499
tp500
sL14902L
(F524288.0
L4208720L
Vquotearg_buffer_restyled
p501
tp502
sL16955L
(F65536.0
L4208720L
Vquotearg_buffer_restyled
p503
tp504
sL23100L
(F35498.666666666664
L4216448L
Vxstrtoul
p505
tp506
sL21054L
(F2.0
L4215344L
Vxmalloc
p507
tp508
sL27200L
(F2.0
L4221472L
Vatexit
p509
tp510
sL25152L
(F1.0
L4219456L
Vrpl_fseeko
p511
tp512
sL12864L
(F4.0
L4206816L
Vfreopen_safer
p513
tp514
sL14914L
(F1048576.0
L4208720L
Vquotearg_buffer_restyled
p515
tp516
sL21059L
(F1.3333333333333333
L4215344L
Vxmalloc
p517
tp518
sL21061L
(F4.0
L4215344L
Vxmalloc
p519
tp520
sL23110L
(F212992.0
L4216448L
Vxstrtoul
p521
tp522
sL16968L
(F1973790.1176470588
L4208720L
Vquotearg_buffer_restyled
p523
tp524
sL8778L
(F7281.777777777777
L4200416L
Vmain
p525
tp526
sL21066L
(F1.0
L4215376L
Vxnmalloc
p527
tp528
sL25162L
(F1.1428571428571428
L4219456L
Vrpl_fseeko
p529
tp530
sL14924L
(F2097152.0
L4208720L
Vquotearg_buffer_restyled
p531
tp532
sL23117L
(F106496.0
L4216448L
Vxstrtoul
p533
tp534
sL25168L
(F2.0
L4219456L
Vrpl_fseeko
p535
tp536
sL21072L
(F1.0
L4215376L
Vxnmalloc
p537
tp538
sL10832L
(F4.0
L4204416L
Vusage
p539
tp540
sL12880L
(F2.0
L4206816L
Vfreopen_safer
p541
tp542
sL8788L
(F29127.11111111111
L4200416L
Vmain
p543
tp544
sL16984L
(F65536.0
L4208720L
Vquotearg_buffer_restyled
p545
tp546
sL8793L
(F58254.22222222222
L4200416L
Vmain
p547
tp548
sL23130L
(F30427.428571428565
L4216448L
Vxstrtoul
p549
tp550
sL25178L
(F4.0
L4219456L
Vrpl_fseeko
p551
tp552
sL10844L
(F1.6
L4204416L
Vusage
p553
tp554
sL14940L
(F4194304.0
L4208720L
Vquotearg_buffer_restyled
p555
tp556
sL8798L
(F116508.44444444444
L4200416L
Vmain
p557
tp558
sL23135L
(F212992.0
L4216448L
Vxstrtoul
p559
tp560
sL6752L
(F367.1484593837535
L4200416L
Vmain
p561
tp562
sL12896L
(F1.0
L4207200L
Vhard_locale
p563
tp564
sL21089L
(F2.0
L4215376L
Vxnmalloc
p565
tp566
sL25185L
(F8.0
L4219456L
Vrpl_fseeko
p567
tp568
sL8803L
(F233016.88888888888
L4200416L
Vmain
p569
tp570
sL14951L
(F8388608.0
L4208720L
Vquotearg_buffer_restyled
p571
tp572
sL21095L
(F2.0
L4215376L
Vxnmalloc
p573
tp574
sL17000L
(F1.7777777777777777
L4208720L
Vquotearg_buffer_restyled
p575
tp576
sL10856L
(F2.2857142857142856
L4204416L
Vusage
p577
tp578
sL8811L
(F35848.75213675214
L4200416L
Vmain
p579
tp580
sL17005L
(F7710.117647058823
L4208720L
Vquotearg_buffer_restyled
p581
tp582
sL23150L
(F106496.0
L4216448L
Vxstrtoul
p583
tp584
sL14958L
(F16777216.0
L4208720L
Vquotearg_buffer_restyled
p585
tp586
sL21104L
(F1.0
L4215344L
Vxmalloc
p587
tp588
sL12912L
(F2.0
L4207200L
Vhard_locale
p589
tp590
sL6768L
(F693.5026455026455
L4200416L
Vmain
p591
tp592
sL12917L
(F4.0
L4207200L
Vhard_locale
p593
tp594
sL14967L
(F8388608.0
L4208720L
Vquotearg_buffer_restyled
p595
tp596
sL12923L
(F8.0
L4207200L
Vhard_locale
p597
tp598
sL8832L
(F71697.50427350428
L4200416L
Vmain
p599
tp600
sL21120L
(F1.0
L4215424L
Vxrealloc
p601
tp602
sL10881L
(F8.0
L4204416L
Vusage
p603
tp604
sL14978L
(F16777216.0
L4208720L
Vquotearg_buffer_restyled
p605
tp606
sL23170L
(F35498.666666666664
L4216448L
Vxstrtoul
p607
tp608
sL6789L
(F1560.3809523809523
L4200416L
Vmain
p609
tp610
sL25222L
(F16.0
L4219456L
Vrpl_fseeko
p611
tp612
sL12936L
(F2.6666666666666665
L4207200L
Vhard_locale
p613
tp614
sL21129L
(F2.0
L4215424L
Vxrealloc
p615
tp616
sL14988L
(F8388608.0
L4208720L
Vquotearg_buffer_restyled
p617
tp618
sL23180L
(F212992.0
L4216448L
Vxstrtoul
p619
tp620
sL19085L
(F2.0
L4213216L
Vquotearg_char_mem
p621
tp622
sL21134L
(F1.3333333333333333
L4215424L
Vxrealloc
p623
tp624
sL8849L
(F10922.666666666666
L4200416L
Vmain
p625
tp626
sL17042L
(F524288.0
L4208720L
Vquotearg_buffer_restyled
p627
tp628
sL19090L
(F2.0
L4213216L
Vquotearg_char_mem
p629
tp630
sL25234L
(F8.0
L4219456L
Vrpl_fseeko
p631
tp632
sL23187L
(F106496.0
L4216448L
Vxstrtoul
p633
tp634
sL14999L
(F16777216.0
L4208720L
Vquotearg_buffer_restyled
p635
tp636
sL21147L
(F2.6666666666666665
L4215424L
Vxrealloc
p637
tp638
sL12960L
(F2.0
L4207200L
Vhard_locale
p639
tp640
sL17056L
(F61680.94117647059
L4208720L
Vquotearg_buffer_restyled
p641
tp642
sL21152L
(F1.7777777777777777
L4215424L
Vxrealloc
p643
tp644
sL23200L
(F30427.428571428565
L4216448L
Vxstrtoul
p645
tp646
sL25248L
(F1.0
L4219552L
Vclose_stream
p647
tp648
sL15009L
(F8388608.0
L4208720L
Vquotearg_buffer_restyled
p649
tp650
sL23205L
(F212992.0
L4216448L
Vxstrtoul
p651
tp652
sL8870L
(F21845.333333333332
L4200416L
Vmain
p653
tp654
sL21160L
(F4.0
L4215424L
Vxrealloc
p655
tp656
sL15020L
(F16777216.0
L4208720L
Vquotearg_buffer_restyled
p657
tp658
sL10928L
(F16.0
L4204416L
Vusage
p659
tp660
sL21169L
(F5.333333333333333
L4215424L
Vxrealloc
p661
tp662
sL23220L
(F2048.0
L4216448L
Vxstrtoul
p663
tp664
sL15030L
(F8388608.0
L4208720L
Vquotearg_buffer_restyled
p665
tp666
sL21174L
(F1.0
L4215488L
Vxnrealloc
p667
tp668
sL8895L
(F1820.4444444444443
L4200416L
Vmain
p669
tp670
sL21184L
(F1.0
L4215488L
Vxnrealloc
p671
tp672
sL15040L
(F3372.982710092481
L4208720L
Vquotearg_buffer_restyled
p673
tp674
sL15047L
(F6188.571007008484
L4208720L
Vquotearg_buffer_restyled
p675
tp676
sL23240L
(F273.06666666666666
L4216448L
Vxstrtoul
p677
tp678
sL25289L
(F2.0
L4219552L
Vclose_stream
p679
tp680
sL10954L
(F6.4
L4204416L
Vusage
p681
tp682
sL13008L
(F1.0
L4207312L
Vreadlinebuffer_delim
p683
tp684
sL15057L
(F87609.48302872063
L4208720L
Vquotearg_buffer_restyled
p685
tp686
sL8913L
(F3640.8888888888887
L4200416L
Vmain
p687
tp688
sL21204L
(F2.0
L4215488L
Vxnrealloc
p689
tp690
sL23253L
(F4096.0
L4216448L
Vxstrtoul
p691
tp692
sL23257L
(F4096.0
L4216448L
Vxstrtoul
p693
tp694
sL8922L
(F7281.777777777777
L4200416L
Vmain
p695
tp696
sL17114L
(F123361.88235294117
L4208720L
Vquotearg_buffer_restyled
p697
tp698
sL21210L
(F2.0
L4215488L
Vxnrealloc
p699
tp700
sL25309L
(F1.0
L4219552L
Vclose_stream
p701
tp702
sL17120L
(F246723.76470588235
L4208720L
Vquotearg_buffer_restyled
p703
tp704
sL19168L
(F1.0
L4213472L
Vquotearg_n_custom_mem
p705
tp706
sL21216L
(F1.0
L4215520L
Vx2nrealloc
p707
tp708
sL23264L
(F53248.0
L4216448L
Vxstrtoul
p709
tp710
sL6882L
(F3120.7619047619046
L4200416L
Vmain
p711
tp712
sL17128L
(F493447.5294117647
L4208720L
Vquotearg_buffer_restyled
p713
tp714
sL15080L
(F25031.280865348752
L4208720L
Vquotearg_buffer_restyled
p715
tp716
sL23272L
(F53248.0
L4216448L
Vxstrtoul
p717
tp718
sL6890L
(F6241.523809523809
L4200416L
Vmain
p719
tp720
sL21227L
(F2.0
L4215520L
Vx2nrealloc
p721
tp722
sL15085L
(F26935.12502508529
L4208720L
Vquotearg_buffer_restyled
p723
tp724
sL17135L
(F197379.01176470588
L4208720L
Vquotearg_buffer_restyled
p725
tp726
sL8943L
(F14563.555555555555
L4200416L
Vmain
p727
tp728
sL23282L
(F53248.0
L4216448L
Vxstrtoul
p729
tp730
sL15096L
(F77875.09602552945
L4208720L
Vquotearg_buffer_restyled
p731
tp732
sL23290L
(F53248.0
L4216448L
Vxstrtoul
p733
tp734
sL17149L
(F281970.0168067227
L4208720L
Vquotearg_buffer_restyled
p735
tp736
sL6910L
(F3120.7619047619046
L4200416L
Vmain
p737
tp738
sL15103L
(F155750.1920510589
L4208720L
Vquotearg_buffer_restyled
p739
tp740
sL21247L
(F4.0
L4215520L
Vx2nrealloc
p741
tp742
sL17152L
(F70492.50420168067
L4208720L
Vquotearg_buffer_restyled
p743
tp744
sL8963L
(F39945.752380952385
L4200416L
Vmain
p745
tp746
sL25347L
(F2.0
L4219552L
Vclose_stream
p747
tp748
sL13060L
(F2.0
L4207312L
Vreadlinebuffer_delim
p749
tp750
sL11015L
(F4.571428571428571
L4204416L
Vusage
p751
tp752
sL17159L
(F30840.470588235294
L4208720L
Vquotearg_buffer_restyled
p753
tp754
sL15112L
(F77875.09602552945
L4208720L
Vquotearg_buffer_restyled
p755
tp756
sL21258L
(F1.3333333333333333
L4215520L
Vx2nrealloc
p757
tp758
sL15116L
(F24724.643640047896
L4208720L
Vquotearg_buffer_restyled
p759
tp760
sL13072L
(F4.0
L4207312L
Vreadlinebuffer_delim
p761
tp762
sL15120L
(F11225.50311546021
L4208720L
Vquotearg_buffer_restyled
p763
tp764
sL23313L
(F53248.0
L4216448L
Vxstrtoul
p765
tp766
sL13077L
(F8.0
L4207312L
Vreadlinebuffer_delim
p767
tp768
sL15127L
(F60945.727324327396
L4208720L
Vquotearg_buffer_restyled
p769
tp770
sL25367L
(F1.0
L4219552L
Vclose_stream
p771
tp772
sL13080L
(F7.111111111111111
L4207312L
Vreadlinebuffer_delim
p773
tp774
sL8986L
(F170.66666666666666
L4200416L
Vmain
p775
tp776
sL15136L
(F30472.863662163698
L4208720L
Vquotearg_buffer_restyled
p777
tp778
sL21280L
(F2.0
L4215520L
Vx2nrealloc
p779
tp780
sL21285L
(F4.0
L4215520L
Vx2nrealloc
p781
tp782
sL13096L
(F1.7534246575342465
L4207312L
Vreadlinebuffer_delim
p783
tp784
sL23336L
(F53248.0
L4216448L
Vxstrtoul
p785
tp786
sL6962L
(F542.7412008281574
L4200416L
Vmain
p787
tp788
sL11058L
(F8.0
L4204416L
Vusage
p789
tp790
sL15156L
(F15.995800643924703
L4208720L
Vquotearg_buffer_restyled
p791
tp792
sL17205L
(F64.0
L4208720L
Vquotearg_buffer_restyled
p793
tp794
sL13112L
(F4.0
L4207312L
Vreadlinebuffer_delim
p795
tp796
sL9018L
(F42.666666666666664
L4200416L
Vmain
p797
tp798
sL6975L
(F201.80446497305618
L4200416L
Vmain
p799
tp800
sL21311L
(F4.0
L4215520L
Vx2nrealloc
p801
tp802
sL23359L
(F53248.0
L4216448L
Vxstrtoul
p803
tp804
sL13121L
(F8.0
L4207312L
Vreadlinebuffer_delim
p805
tp806
sL25409L
(F2.0
L4219552L
Vclose_stream
p807
tp808
sL15172L
(F15.997900046385697
L4208720L
Vquotearg_buffer_restyled
p809
tp810
sL21317L
(F1.0
L4215632L
Vx2realloc
p811
tp812
sL6987L
(F509.5121477162293
L4200416L
Vmain
p813
tp814
sL13131L
(F16.0
L4207312L
Vreadlinebuffer_delim
p815
tp816
sL21328L
(F1.0
L4215632L
Vx2realloc
p817
tp818
sL17234L
(F128.0
L4208720L
Vquotearg_buffer_restyled
p819
tp820
sL6996L
(F264.59147110774666
L4200416L
Vmain
p821
tp822
sL25429L
(F1.0
L4219552L
Vclose_stream
p823
tp824
sL19286L
(F2.0
L4213472L
Vquotearg_n_custom_mem
p825
tp826
sL23382L
(F53248.0
L4216448L
Vxstrtoul
p827
tp828
sL15192L
(F31.995800092771393
L4208720L
Vquotearg_buffer_restyled
p829
tp830
sL13146L
(F32.0
L4207312L
Vreadlinebuffer_delim
p831
tp832
sL19291L
(F4.0
L4213472L
Vquotearg_n_custom_mem
p833
tp834
sL9052L
(F6.4
L4200416L
Vmain
p835
tp836
sL9056L
(F6.310336526888451
L4200416L
Vmain
p837
tp838
sL11105L
(F16.0
L4204416L
Vusage
p839
tp840
sL15201L
(F21.33053339518093
L4208720L
Vquotearg_buffer_restyled
p841
tp842
sL13158L
(F7.111111111111111
L4207312L
Vreadlinebuffer_delim
p843
tp844
sL23405L
(F53248.0
L4216448L
Vxstrtoul
p845
tp846
sL17263L
(F32.0
L4208720L
Vquotearg_buffer_restyled
p847
tp848
sL15218L
(F42.66106679036186
L4208720L
Vquotearg_buffer_restyled
p849
tp850
sL11127L
(F10.666666666666666
L4204416L
Vusage
p851
tp852
sL13176L
(F128.0
L4207312L
Vreadlinebuffer_delim
p853
tp854
sL15225L
(F85.32213358072372
L4208720L
Vquotearg_buffer_restyled
p855
tp856
sL7035L
(F254.75607385811466
L4200416L
Vmain
p857
tp858
sL21378L
(F2.0
L4215632L
Vx2realloc
p859
tp860
sL19331L
(F8.0
L4213472L
Vquotearg_n_custom_mem
p861
tp862
sL25475L
(F2.0
L4219552L
Vclose_stream
p863
tp864
sL23428L
(F53248.0
L4216448L
Vxstrtoul
p865
tp866
sL25479L
(F4.0
L4219552L
Vclose_stream
p867
tp868
sL19336L
(F1.3333333333333333
L4213472L
Vquotearg_n_custom_mem
p869
tp870
sL19341L
(F8.0
L4213472L
Vquotearg_n_custom_mem
p871
tp872
sL9103L
(F71697.50427350428
L4200416L
Vmain
p873
tp874
sL15248L
(F56.881422387149144
L4208720L
Vquotearg_buffer_restyled
p875
tp876
sL17296L
(F32.0
L4208720L
Vquotearg_buffer_restyled
p877
tp878
sL25489L
(F2.6666666666666665
L4219552L
Vclose_stream
p879
tp880
sL15253L
(F170.64426716144743
L4208720L
Vquotearg_buffer_restyled
p881
tp882
sL21398L
(F1.0
L4215632L
Vx2realloc
p883
tp884
sL15256L
(F85.32213358072372
L4208720L
Vquotearg_buffer_restyled
p885
tp886
sL23451L
(F53248.0
L4216448L
Vxstrtoul
p887
tp888
sL9116L
(F14563.555555555555
L4200416L
Vmain
p889
tp890
sL25504L
(F2.0
L4219552L
Vclose_stream
p891
tp892
sL11169L
(F7.111111111111111
L4204416L
Vusage
p893
tp894
sL15268L
(F24.377752451635345
L4208720L
Vquotearg_buffer_restyled
p895
tp896
sL25508L
(F4.0
L4219552L
Vclose_stream
p897
tp898
sL7080L
(F509.5121477162293
L4200416L
Vmain
p899
tp900
sL13224L
(F64.0
L4207312L
Vreadlinebuffer_delim
p901
tp902
sL9131L
(F509.5121477162293
L4200416L
Vmain
p903
tp904
sL9136L
(F32.0
L4200416L
Vmain
p905
tp906
sL11185L
(F32.0
L4204416L
Vusage
p907
tp908
sL15282L
(F48.75550490327069
L4208720L
Vquotearg_buffer_restyled
p909
tp910
sL23474L
(F26624.0
L4216448L
Vxstrtoul
p911
tp912
sL17332L
(F34.68752876813453
L4208720L
Vquotearg_buffer_restyled
p913
tp914
sL11190L
(F16.0
L4204416L
Vusage
p915
tp916
sL17337L
(F1.0
L4211648L
Vquotearg_n_options
p917
tp918
sL23482L
(F819.2
L4216448L
Vxstrtoul
p919
tp920
sL9151L
(F450.4192439862543
L4200416L
Vmain
p921
tp922
sL21439L
(F2.0
L4215632L
Vx2realloc
p923
tp924
sL7104L
(F2.6666666666666665
L4200416L
Vmain
p925
tp926
sL15296L
(F32768.0
L4208720L
Vquotearg_buffer_restyled
p927
tp928
sL17344L
(F1.0
L4211648L
Vquotearg_n_options
p929
tp930
sL25536L
(F8.0
L4219552L
Vclose_stream
p931
tp932
sL23497L
(F512.0
L4216448L
Vxstrtoul
p933
tp934
sL13259L
(F128.0
L4207312L
Vreadlinebuffer_delim
p935
tp936
sL15313L
(F32768.0
L4208720L
Vquotearg_buffer_restyled
p937
tp938
sL21459L
(F1.0
L4215632L
Vx2realloc
p939
tp940
sL23512L
(F212992.0
L4216448L
Vxstrtoul
p941
tp942
sL25560L
(F4.0
L4219552L
Vclose_stream
p943
tp944
sL15321L
(F26214.4
L4208720L
Vquotearg_buffer_restyled
p945
tp946
sL13279L
(F64.0
L4207312L
Vreadlinebuffer_delim
p947
tp948
sL5088L
(F1.0
L4199392L
V_init
p949
tp950
sL15330L
(F20164.923076923078
L4208720L
Vquotearg_buffer_restyled
p951
tp952
sL7139L
(F5.333333333333333
L4200416L
Vmain
p953
tp954
sL21475L
(F2.0
L4215632L
Vx2realloc
p955
tp956
sL23530L
(F141994.66666666666
L4216448L
Vxstrtoul
p957
tp958
sL7148L
(F10.666666666666666
L4200416L
Vmain
p959
tp960
sL15341L
(F24966.095238095237
L4208720L
Vquotearg_buffer_restyled
p961
tp962
sL7150L
(F21.333333333333332
L4200416L
Vmain
p963
tp964
sL5104L
(F2.0
L4199392L
V_init
p965
tp966
sL11248L
(F1.0
L4205552L
Vargmatch
p967
tp968
sL25584L
(F1.0
L4219888L
Vlocale_charset
p969
tp970
sL5109L
(F1.0
L4199392L
V_init
p971
tp972
sL7159L
(F42.666666666666664
L4200416L
Vmain
p973
tp974
sL21495L
(F4.0
L4215632L
Vx2realloc
p975
tp976
sL15352L
(F49932.19047619047
L4208720L
Vquotearg_buffer_restyled
p977
tp978
sL17402L
(F2.0
L4211648L
Vquotearg_n_options
p979
tp980
sL23547L
(F2.0
L4216448L
Vxstrtoul
p981
tp982
sL7165L
(F85.33333333333333
L4200416L
Vmain
p983
tp984
sL9216L
(F1.0
L4203520L
Vderegister_tm_clones
p985
tp986
sL15360L
(F927.4592424446587
L4208720L
Vquotearg_buffer_restyled
p987
tp988
sL21506L
(F1.3333333333333333
L4215632L
Vx2realloc
p989
tp990
sL17411L
(F4.0
L4211648L
Vquotearg_n_options
p991
tp992
sL15366L
(F59.975959664903456
L4208720L
Vquotearg_buffer_restyled
p993
tp994
sL7174L
(F170.66666666666666
L4200416L
Vmain
p995
tp996
sL13321L
(F128.0
L4207312L
Vreadlinebuffer_delim
p997
tp998
sL7183L
(F341.3333333333333
L4200416L
Vmain
p999
tp1000
sL23572L
(F16.0
L4216448L
Vxstrtoul
p1001
tp1002
sL9237L
(F2.0
L4203520L
Vderegister_tm_clones
p1003
tp1004
sL7192L
(F3.2639075651177847
L4200416L
Vmain
p1005
tp1006
sL23577L
(F1.0
L4217888L
Vrpl_fclose
p1007
tp1008
sL13341L
(F64.0
L4207312L
Vreadlinebuffer_delim
p1009
tp1010
sL17438L
(F8.0
L4211648L
Vquotearg_n_options
p1011
tp1012
sL9247L
(F4.0
L4203520L
Vderegister_tm_clones
p1013
tp1014
sL21536L
(F2.0
L4215632L
Vx2realloc
p1015
tp1016
sL23584L
(F1.0
L4217888L
Vrpl_fclose
p1017
tp1018
sL21541L
(F4.0
L4215632L
Vx2realloc
p1019
tp1020
sL7208L
(F7.037800687285223
L4200416L
Vmain
p1021
tp1022
sL11307L
(F2.0
L4205552L
Vargmatch
p1023
tp1024
sL9264L
(F1.3333333333333333
L4203520L
Vderegister_tm_clones
p1025
tp1026
sL7217L
(F14.075601374570446
L4200416L
Vmain
p1027
tp1028
sL25657L
(F2.0
L4219888L
Vlocale_charset
p1029
tp1030
sL7226L
(F28.151202749140893
L4200416L
Vmain
p1031
tp1032
sL17466L
(F4.0
L4211648L
Vquotearg_n_options
p1033
tp1034
sL21565L
(F4.0
L4215632L
Vx2realloc
p1035
tp1036
sL15422L
(F17.343764384067264
L4208720L
Vquotearg_buffer_restyled
p1037
tp1038
sL9280L
(F1.0
L4203584L
Vregister_tm_clones
p1039
tp1040
sL11328L
(F16.0
L4205552L
Vargmatch
p1041
tp1042
sL25664L
(F10.666666666666666
L4219888L
Vlocale_charset
p1043
tp1044
sL7237L
(F56.302405498281786
L4200416L
Vmain
p1045
tp1046
sL13383L
(F128.0
L4207312L
Vreadlinebuffer_delim
p1047
tp1048
sL7242L
(F112.60481099656357
L4200416L
Vmain
p1049
tp1050
sL23629L
(F2.0
L4217888L
Vrpl_fclose
p1051
tp1052
sL11342L
(F32.0
L4205552L
Vargmatch
p1053
tp1054
sL7249L
(F225.20962199312714
L4200416L
Vmain
p1055
tp1056
sL15445L
(F34.68752876813453
L4208720L
Vquotearg_buffer_restyled
p1057
tp1058
sL25690L
(F1.6427635907880307
L4219888L
Vlocale_charset
p1059
tp1060
sL13403L
(F64.0
L4207312L
Vreadlinebuffer_delim
p1061
tp1062
sL17500L
(F2.6666666666666665
L4211648L
Vquotearg_n_options
p1063
tp1064
sL19552L
(F1.0
L4213856L
Vversion_etc_arn
p1065
tp1066
sL23649L
(F1.0
L4217888L
Vrpl_fclose
p1067
tp1068
sL9315L
(F2.0
L4203584L
Vregister_tm_clones
p1069
tp1070
sL25699L
(F4.0
L4219888L
Vlocale_charset
p1071
tp1072
sL9325L
(F4.0
L4203584L
Vregister_tm_clones
p1073
tp1074
sL15472L
(F32768.0
L4208720L
Vquotearg_buffer_restyled
p1075
tp1076
sL21616L
(F1.0
L4215920L
Vxcalloc
p1077
tp1078
sL25714L
(F8.0
L4219888L
Vlocale_charset
p1079
tp1080
sL15477L
(F8738.133333333333
L4208720L
Vquotearg_buffer_restyled
p1081
tp1082
sL11384L
(F2.5098039215686274
L4205552L
Vargmatch
p1083
tp1084
sL9336L
(F1.3333333333333333
L4203584L
Vregister_tm_clones
p1085
tp1086
sL25720L
(F16.0
L4219888L
Vlocale_charset
p1087
tp1088
sL13435L
(F128.0
L4207312L
Vreadlinebuffer_delim
p1089
tp1090
sL15484L
(F65536.0
L4208720L
Vquotearg_buffer_restyled
p1091
tp1092
sL21630L
(F2.0
L4215920L
Vxcalloc
p1093
tp1094
sL25727L
(F6.4
L4219888L
Vlocale_charset
p1095
tp1096
sL9344L
(F1.0
L4203648L
V__do_global_dtors_aux
p1097
tp1098
sL19584L
(F2.0
L4213856L
Vversion_etc_arn
p1099
tp1100
sL21635L
(F2.0
L4215920L
Vxcalloc
p1101
tp1102
sL15495L
(F5349.877551020408
L4208720L
Vquotearg_buffer_restyled
p1103
tp1104
sL23687L
(F2.0
L4217888L
Vrpl_fclose
p1105
tp1106
sL11400L
(F1.4883720930232558
L4205552L
Vargmatch
p1107
tp1108
sL9353L
(F2.0
L4203648L
V__do_global_dtors_aux
p1109
tp1110
sL25740L
(F2.4615384615384617
L4219888L
Vlocale_charset
p1111
tp1112
sL15504L
(F87381.33333333333
L4208720L
Vquotearg_buffer_restyled
p1113
tp1114
sL7312L
(F85.33333333333333
L4200416L
Vmain
p1115
tp1116
sL7317L
(F170.66666666666666
L4200416L
Vmain
p1117
tp1118
sL9370L
(F1.0
L4203648L
V__do_global_dtors_aux
p1119
tp1120
sL19610L
(F1.0
L4213856L
Vversion_etc_arn
p1121
tp1122
sL11419L
(F4.0
L4205552L
Vargmatch
p1123
tp1124
sL23707L
(F1.0
L4217888L
Vrpl_fclose
p1125
tp1126
sL9376L
(F1.0
L4203680L
Vframe_dummy
p1127
tp1128
sL7328L
(F341.3333333333333
L4200416L
Vmain
p1129
tp1130
sL15520L
(F32768.0
L4208720L
Vquotearg_buffer_restyled
p1131
tp1132
sL11432L
(F8.0
L4205552L
Vargmatch
p1133
tp1134
sL7337L
(F682.6666666666666
L4200416L
Vmain
p1135
tp1136
sL9387L
(F1.3333333333333333
L4203680L
Vframe_dummy
p1137
tp1138
sL9392L
(F2.0
L4203680L
Vframe_dummy
p1139
tp1140
sL11440L
(F16.0
L4205552L
Vargmatch
p1141
tp1142
sL15536L
(F32768.0
L4208720L
Vquotearg_buffer_restyled
p1143
tp1144
sL17585L
(F5.333333333333333
L4211648L
Vquotearg_n_options
p1145
tp1146
sL25778L
(F4.923076923076923
L4219888L
Vlocale_charset
p1147
tp1148
sL13497L
(F64.0
L4207312L
Vreadlinebuffer_delim
p1149
tp1150
sL9402L
(F4.0
L4203680L
Vframe_dummy
p1151
tp1152
sL15552L
(F32768.0
L4208720L
Vquotearg_buffer_restyled
p1153
tp1154
sL17601L
(F10.666666666666666
L4211648L
Vquotearg_n_options
p1155
tp1156
sL25796L
(F2.0
L4219888L
Vlocale_charset
p1157
tp1158
sL11461L
(F32.0
L4205552L
Vargmatch
p1159
tp1160
sL23749L
(F2.0
L4217888L
Vrpl_fclose
p1161
tp1162
sL7366L
(F112.60481099656357
L4200416L
Vmain
p1163
tp1164
sL11464L
(F5.818181818181818
L4205552L
Vargmatch
p1165
tp1166
sL15568L
(F16384.0
L4208720L
Vquotearg_buffer_restyled
p1167
tp1168
sL9424L
(F1.0
L4203728L
Vdifferent
p1169
tp1170
sL17619L
(F5.333333333333333
L4211648L
Vquotearg_n_options
p1171
tp1172
sL7382L
(F128.69121256750122
L4200416L
Vmain
p1173
tp1174
sL25814L
(F4.0
L4219888L
Vlocale_charset
p1175
tp1176
sL15577L
(F32768.0
L4208720L
Vquotearg_buffer_restyled
p1177
tp1178
sL23769L
(F1.0
L4217888L
Vrpl_fclose
p1179
tp1180
sL11482L
(F1.8823529411764706
L4205552L
Vargmatch
p1181
tp1182
sL25819L
(F2.6666666666666665
L4219888L
Vlocale_charset
p1183
tp1184
sL7391L
(F450.4192439862543
L4200416L
Vmain
p1185
tp1186
sL13536L
(F64.0
L4207312L
Vreadlinebuffer_delim
p1187
tp1188
sL15588L
(F65536.0
L4208720L
Vquotearg_buffer_restyled
p1189
tp1190
sL15595L
(F131072.0
L4208720L
Vquotearg_buffer_restyled
p1191
tp1192
sL25835L
(F2.2857142857142856
L4219888L
Vlocale_charset
p1193
tp1194
sL13548L
(F21.333333333333332
L4207312L
Vreadlinebuffer_delim
p1195
tp1196
sL19694L
(F4.0
L4213856L
Vversion_etc_arn
p1197
tp1198
sL11504L
(F32.0
L4205552L
Vargmatch
p1199
tp1200
sL15604L
(F65536.0
L4208720L
Vquotearg_buffer_restyled
p1201
tp1202
sL7414L
(F170.66666666666666
L4200416L
Vmain
p1203
tp1204
sL25846L
(F5.333333333333333
L4219888L
Vlocale_charset
p1205
tp1206
sL9463L
(F2.0
L4203728L
Vdifferent
p1207
tp1208
sL9468L
(F2.6666666666666665
L4203728L
Vdifferent
p1209
tp1210
sL23806L
(F2.0
L4217888L
Vrpl_fclose
p1211
tp1212
sL19712L
(F44.0
L4213856L
Vversion_etc_arn
p1213
tp1214
sL11520L
(F8.0
L4205552L
Vargmatch
p1215
tp1216
sL7424L
(F170.66666666666666
L4200416L
Vmain
p1217
tp1218
sL15617L
(F131072.0
L4208720L
Vquotearg_buffer_restyled
p1219
tp1220
sL9480L
(F2.0
L4203728L
Vdifferent
p1221
tp1222
sL23819L
(F4.0
L4217888L
Vrpl_fclose
p1223
tp1224
sL7436L
(F682.6666666666666
L4200416L
Vmain
p1225
tp1226
sL15631L
(F262144.0
L4208720L
Vquotearg_buffer_restyled
p1227
tp1228
sL25871L
(F10.666666666666666
L4219888L
Vlocale_charset
p1229
tp1230
sL13584L
(F1.4545454545454546
L4207312L
Vreadlinebuffer_delim
p1231
tp1232
sL9489L
(F4.0
L4203728L
Vdifferent
p1233
tp1234
sL17685L
(F2.6666666666666665
L4211648L
Vquotearg_n_options
p1235
tp1236
sL15642L
(F262144.0
L4208720L
Vquotearg_buffer_restyled
p1237
tp1238
sL9499L
(F8.0
L4203728L
Vdifferent
p1239
tp1240
sL11552L
(F1.0
L4205856L
Vargmatch_invalid
p1241
tp1242
sL13601L
(F9.846153846153847
L4207312L
Vreadlinebuffer_delim
p1243
tp1244
sL25892L
(F8.0
L4219888L
Vlocale_charset
p1245
tp1246
sL15653L
(F1048576.0
L4208720L
Vquotearg_buffer_restyled
p1247
tp1248
sL23853L
(F8.0
L4217888L
Vrpl_fclose
p1249
tp1250
sL15663L
(F524288.0
L4208720L
Vquotearg_buffer_restyled
p1251
tp1252
sL9520L
(F4.0
L4203728L
Vdifferent
p1253
tp1254
sL17712L
(F8.0
L4211648L
Vquotearg_n_options
p1255
tp1256
sL7473L
(F14.075601374570446
L4200416L
Vmain
p1257
tp1258
sL11573L
(F2.0
L4205856L
Vargmatch_invalid
p1259
tp1260
sL15672L
(F74898.28571428571
L4208720L
Vquotearg_buffer_restyled
p1261
tp1262
sL25912L
(F16.0
L4219888L
Vlocale_charset
p1263
tp1264
sL7482L
(F28.151202749140893
L4200416L
Vmain
p1265
tp1266
sL25917L
(F4.0
L4219888L
Vlocale_charset
p1267
tp1268
sL9536L
(F4.0
L4203728L
Vdifferent
p1269
tp1270
sL23873L
(F4.0
L4217888L
Vrpl_fclose
p1271
tp1272
sL19778L
(F22.0
L4213856L
Vversion_etc_arn
p1273
tp1274
sL7491L
(F56.302405498281786
L4200416L
Vmain
p1275
tp1276
sL11588L
(F1.0
L4205856L
Vargmatch_invalid
p1277
tp1278
sL25934L
(F8.0
L4219888L
Vlocale_charset
p1279
tp1280
sL13648L
(F1.0
L4207952L
Vmemcasecmp
p1281
tp1282
sL15696L
(F32768.0
L4208720L
Vquotearg_buffer_restyled
p1283
tp1284
sL13653L
(F2.0
L4207952L
Vmemcasecmp
p1285
tp1286
sL7512L
(F341.3333333333333
L4200416L
Vmain
p1287
tp1288
sL25951L
(F4.571428571428571
L4219888L
Vlocale_charset
p1289
tp1290
sL15712L
(F32768.0
L4208720L
Vquotearg_buffer_restyled
p1291
tp1292
sL9568L
(F1.0
L4203872L
Vsize_opt
p1293
tp1294
sL17765L
(F2.0
L4211648L
Vquotearg_n_options
p1295
tp1296
sL23911L
(F8.0
L4217888L
Vrpl_fclose
p1297
tp1298
sL7528L
(F682.6666666666666
L4200416L
Vmain
p1299
tp1300
sL13680L
(F4.0
L4207952L
Vmemcasecmp
p1301
tp1302
sL15728L
(F32768.0
L4208720L
Vquotearg_buffer_restyled
p1303
tp1304
sL13689L
(F1.6
L4207952L
Vmemcasecmp
p1305
tp1306
sL23931L
(F4.0
L4217888L
Vrpl_fclose
p1307
tp1308
sL11648L
(F2.0
L4205856L
Vargmatch_invalid
p1309
tp1310
sL15744L
(F32768.0
L4208720L
Vquotearg_buffer_restyled
p1311
tp1312
sL15751L
(F65536.0
L4208720L
Vquotearg_buffer_restyled
p1313
tp1314
sL19848L
(F44.0
L4213856L
Vversion_etc_arn
p1315
tp1316
sL13709L
(F4.0
L4207952L
Vmemcasecmp
p1317
tp1318
sL15759L
(F43690.666666666664
L4208720L
Vquotearg_buffer_restyled
p1319
tp1320
sL9622L
(F2.0
L4203872L
Vsize_opt
p1321
tp1322
sL13720L
(F8.0
L4207952L
Vmemcasecmp
p1323
tp1324
sL26010L
(F9.142857142857142
L4219888L
Vlocale_charset
p1325
tp1326
sL7579L
(F28.151202749140893
L4200416L
Vmain
p1327
tp1328
sL13727L
(F2.0
L4207952L
Vmemcasecmp
p1329
tp1330
sL11680L
(F1.0
L4205984L
Vargmatch_valid
p1331
tp1332
sL15776L
(F32768.0
L4208720L
Vquotearg_buffer_restyled
p1333
tp1334
sL23972L
(F8.0
L4217888L
Vrpl_fclose
p1335
tp1336
sL7590L
(F56.302405498281786
L4200416L
Vmain
p1337
tp1338
sL15787L
(F65536.0
L4208720L
Vquotearg_buffer_restyled
p1339
tp1340
sL13744L
(F1.0
L4208048L
Vposix2_version
p1341
tp1342
sL26034L
(F18.285714285714285
L4219888L
Vlocale_charset
p1343
tp1344
sL15798L
(F131072.0
L4208720L
Vquotearg_buffer_restyled
p1345
tp1346
sL23992L
(F4.0
L4217888L
Vrpl_fclose
p1347
tp1348
sL15805L
(F262144.0
L4208720L
Vquotearg_buffer_restyled
p1349
tp1350
sL9662L
(F1.0
L4203872L
Vsize_opt
p1351
tp1352
sL7616L
(F75.06987399770905
L4200416L
Vmain
p1353
tp1354
sL26048L
(F13.149277688603531
L4219888L
Vlocale_charset
p1355
tp1356
sL15814L
(F131072.0
L4208720L
Vquotearg_buffer_restyled
p1357
tp1358
sL19912L
(F3.384615384615385
L4213856L
Vversion_etc_arn
p1359
tp1360
sL15825L
(F262144.0
L4208720L
Vquotearg_buffer_restyled
p1361
tp1362
sL26065L
(F26.261671007814066
L4219888L
Vlocale_charset
p1363
tp1364
sL9682L
(F2.0
L4203872L
Vsize_opt
p1365
tp1366
sL7640L
(F56.302405498281786
L4200416L
Vmain
p1367
tp1368
sL9689L
(F2.0
L4203872L
Vsize_opt
p1369
tp1370
sL13785L
(F2.0
L4208048L
Vposix2_version
p1371
tp1372
sL26073L
(F73.14285714285714
L4219888L
Vlocale_charset
p1373
tp1374
sL15835L
(F131072.0
L4208720L
Vquotearg_buffer_restyled
p1375
tp1376
sL9694L
(F1.0
L4204000L
Vwriteline
p1377
tp1378
sL13790L
(F1.0
L4208048L
Vposix2_version
p1379
tp1380
sL26078L
(F146.28571428571428
L4219888L
Vlocale_charset
p1381
tp1382
sL7647L
(F48.33038348082596
L4200416L
Vmain
p1383
tp1384
sL24031L
(F8.0
L4217888L
Vrpl_fclose
p1385
tp1386
sL9696L
(F1.0
L4204000L
Vwriteline
p1387
tp1388
sL19936L
(F22.0
L4213856L
Vversion_etc_arn
p1389
tp1390
sL21984L
(F1.0
L4216288L
Vxmemcoll
p1391
tp1392
sL9701L
(F2.0
L4204000L
Vwriteline
p1393
tp1394
sL15846L
(F262144.0
L4208720L
Vquotearg_buffer_restyled
p1395
tp1396
sL11751L
(F2.0
L4205984L
Vargmatch_valid
p1397
tp1398
sL26087L
(F292.57142857142856
L4219888L
Vlocale_charset
p1399
tp1400
sL19944L
(F44.0
L4213856L
Vversion_etc_arn
p1401
tp1402
sL9711L
(F1.0
L4204000L
Vwriteline
p1403
tp1404
sL11760L
(F2.6666666666666665
L4205984L
Vargmatch_valid
p1405
tp1406
sL13808L
(F2.6666666666666665
L4208048L
Vposix2_version
p1407
tp1408
sL15856L
(F131072.0
L4208720L
Vquotearg_buffer_restyled
p1409
tp1410
sL9715L
(F4.0
L4204000L
Vwriteline
p1411
tp1412
sL24051L
(F4.0
L4217888L
Vrpl_fclose
p1413
tp1414
sL7676L
(F42.666666666666664
L4200416L
Vmain
p1415
tp1416
sL13824L
(F4.0
L4208048L
Vposix2_version
p1417
tp1418
sL15872L
(F1927.5294117647059
L4208720L
Vquotearg_buffer_restyled
p1419
tp1420
sL9729L
(F4.0
L4204000L
Vwriteline
p1421
tp1422
sL22023L
(F2.0
L4216288L
Vxmemcoll
p1423
tp1424
sL15884L
(F3855.0588235294117
L4208720L
Vquotearg_buffer_restyled
p1425
tp1426
sL7694L
(F10.666666666666666
L4200416L
Vmain
p1427
tp1428
sL26131L
(F585.1428571428571
L4219888L
Vlocale_charset
p1429
tp1430
sL22040L
(F1.0
L4216288L
Vxmemcoll
p1431
tp1432
sL26136L
(F390.0952380952381
L4219888L
Vlocale_charset
p1433
tp1434
sL13849L
(F8.0
L4208048L
Vposix2_version
p1435
tp1436
sL24093L
(F8.0
L4217888L
Vrpl_fclose
p1437
tp1438
sL7712L
(F28.151202749140893
L4200416L
Vmain
p1439
tp1440
sL9760L
(F4.0
L4204000L
Vwriteline
p1441
tp1442
sL20000L
(F44.0
L4213856L
Vversion_etc_arn
p1443
tp1444
sL11814L
(F1.3333333333333333
L4205984L
Vargmatch_valid
p1445
tp1446
sL13862L
(F16.0
L4208048L
Vposix2_version
p1447
tp1448
sL9768L
(F2.0
L4204000L
Vwriteline
p1449
tp1450
sL11819L
(F4.0
L4205984L
Vargmatch_valid
p1451
tp1452
sL9773L
(F4.0
L4204000L
Vwriteline
p1453
tp1454
sL26159L
(F1170.2857142857142
L4219888L
Vlocale_charset
p1455
tp1456
sL17968L
(F1.0
L4212272L
Vset_custom_quoting
p1457
tp1458
sL22064L
(F1.0
L4216368L
Vxmemcoll0
p1459
tp1460
sL24113L
(F4.0
L4217888L
Vrpl_fclose
p1461
tp1462
sL13879L
(F2.6666666666666665
L4208048L
Vposix2_version
p1463
tp1464
sL7738L
(F56.302405498281786
L4200416L
Vmain
p1465
tp1466
sL13884L
(F1.0
L4208192L
Vset_program_name
p1467
tp1468
sL11837L
(F8.0
L4205984L
Vargmatch_valid
p1469
tp1470
sL15935L
(F3383.3985303570753
L4208720L
Vquotearg_buffer_restyled
p1471
tp1472
sL9792L
(F4.0
L4204000L
Vwriteline
p1473
tp1474
sL13888L
(F1.0
L4208192L
Vset_program_name
p1475
tp1476
sL13894L
(F2.0
L4208192L
Vset_program_name
p1477
tp1478
sL15944L
(F5436.502303727481
L4208720L
Vquotearg_buffer_restyled
p1479
tp1480
sL17995L
(F2.0
L4212272L
Vset_custom_quoting
p1481
tp1482
sL18000L
(F4.0
L4212272L
Vset_custom_quoting
p1483
tp1484
sL9808L
(F8.0
L4204000L
Vwriteline
p1485
tp1486
sL22103L
(F2.0
L4216368L
Vxmemcoll0
p1487
tp1488
sL13912L
(F4.0
L4208192L
Vset_program_name
p1489
tp1490
sL26201L
(F780.1904761904761
L4219888L
Vlocale_charset
p1491
tp1492
sL24155L
(F8.0
L4217888L
Vrpl_fclose
p1493
tp1494
sL18013L
(F1.3333333333333333
L4212272L
Vset_custom_quoting
p1495
tp1496
sL15968L
(F15420.235294117647
L4208720L
Vquotearg_buffer_restyled
p1497
tp1498
sL20064L
(F44.0
L4213856L
Vversion_etc_arn
p1499
tp1500
sL5728L
(F1.3333333333333333
L4218800L
Vrpl_fflush
p1501
tp1502
sL13928L
(F8.0
L4208192L
Vset_program_name
p1503
tp1504
sL15977L
(F30840.470588235294
L4208720L
Vquotearg_buffer_restyled
p1505
tp1506
sL22122L
(F1.0
L4216368L
Vxmemcoll0
p1507
tp1508
sL15982L
(F61680.94117647059
L4208720L
Vquotearg_buffer_restyled
p1509
tp1510
sL24175L
(F4.0
L4217888L
Vrpl_fclose
p1511
tp1512
sL11888L
(F1.3333333333333333
L4205984L
Vargmatch_valid
p1513
tp1514
sL9840L
(F1.0
L4204144L
Vfind_field
p1515
tp1516
sL26225L
(F2340.5714285714284
L4219888L
Vlocale_charset
p1517
tp1518
sL15986L
(F30840.470588235294
L4208720L
Vquotearg_buffer_restyled
p1519
tp1520
sL7795L
(F8.0
L4200416L
Vmain
p1521
tp1522
sL13946L
(F16.0
L4208192L
Vset_program_name
p1523
tp1524
sL15995L
(F61680.94117647059
L4208720L
Vquotearg_buffer_restyled
p1525
tp1526
sL22144L
(F1.0
L4216448L
Vxstrtoul
p1527
tp1528
sL11905L
(F3.5555555555555554
L4205984L
Vargmatch_valid
p1529
tp1530
sL7810L
(F16.0
L4200416L
Vmain
p1531
tp1532
sL16008L
(F30840.470588235294
L4208720L
Vquotearg_buffer_restyled
p1533
tp1534
sL9871L
(F2.0
L4204144L
Vfind_field
p1535
tp1536
sL16017L
(F61680.94117647059
L4208720L
Vquotearg_buffer_restyled
p1537
tp1538
sL13976L
(F32.0
L4208192L
Vset_program_name
p1539
tp1540
sL7833L
(F8.0
L4200416L
Vmain
p1541
tp1542
sL24217L
(F8.0
L4217888L
Vrpl_fclose
p1543
tp1544
sL11931L
(F3.5555555555555554
L4205984L
Vargmatch_valid
p1545
tp1546
sL9885L
(F4.0
L4204144L
Vfind_field
p1547
tp1548
sL9888L
(F3.9384615384615387
L4204144L
Vfind_field
p1549
tp1550
sL16033L
(F30840.470588235294
L4208720L
Vquotearg_buffer_restyled
p1551
tp1552
sL13987L
(F2.0
L4208192L
Vset_program_name
p1553
tp1554
sL22183L
(F2.0
L4216448L
Vxstrtoul
p1555
tp1556
sL20136L
(F44.0
L4213856L
Vversion_etc_arn
p1557
tp1558
sL26282L
(F4681.142857142857
L4219888L
Vlocale_charset
p1559
tp1560
sL16045L
(F10280.156862745098
L4208720L
Vquotearg_buffer_restyled
p1561
tp1562
sL24237L
(F4.0
L4217888L
Vrpl_fclose
p1563
tp1564
sL9904L
(F8.0
L4204144L
Vfind_field
p1565
tp1566
sL7859L
(F56.302405498281786
L4200416L
Vmain
p1567
tp1568
sL14003L
(F2.0
L4208192L
Vset_program_name
p1569
tp1570
sL9913L
(F3.1604938271604937
L4204144L
Vfind_field
p1571
tp1572
sL16058L
(F20560.313725490196
L4208720L
Vquotearg_buffer_restyled
p1573
tp1574
sL16063L
(F41120.62745098039
L4208720L
Vquotearg_buffer_restyled
p1575
tp1576
sL11968L
(F1.0
L4206272L
V__xargmatch_internal
p1577
tp1578
sL16067L
(F20560.313725490196
L4208720L
Vquotearg_buffer_restyled
p1579
tp1580
sL26307L
(F2340.5714285714284
L4219888L
Vlocale_charset
p1581
tp1582
sL9926L
(F8.0
L4204144L
Vfind_field
p1583
tp1584
sL7880L
(F682.6666666666666
L4200416L
Vmain
p1585
tp1586
sL9931L
(F16.0
L4204144L
Vfind_field
p1587
tp1588
sL16076L
(F4299.610875745805
L4208720L
Vquotearg_buffer_restyled
p1589
tp1590
sL20172L
(F22.0
L4213856L
Vversion_etc_arn
p1591
tp1592
sL26316L
(F9362.285714285714
L4219888L
Vlocale_charset
p1593
tp1594
sL9936L
(F32.0
L4204144L
Vfind_field
p1595
tp1596
sL16081L
(F15420.235294117647
L4208720L
Vquotearg_buffer_restyled
p1597
tp1598
sL14035L
(F1.0
L4208352L
Vquoting_options_from_style
p1599
tp1600
sL16086L
(F30840.470588235294
L4208720L
Vquotearg_buffer_restyled
p1601
tp1602
sL7895L
(F56.302405498281786
L4200416L
Vmain
p1603
tp1604
sL9945L
(F64.0
L4204144L
Vfind_field
p1605
tp1606
sL16091L
(F61680.94117647059
L4208720L
Vquotearg_buffer_restyled
p1607
tp1608
sL7900L
(F45.04192439862543
L4200416L
Vmain
p1609
tp1610
sL16095L
(F30840.470588235294
L4208720L
Vquotearg_buffer_restyled
p1611
tp1612
sL14048L
(F1.0
L4208352L
Vquoting_options_from_style
p1613
tp1614
sL9954L
(F12.8
L4204144L
Vfind_field
p1615
tp1616
sL9958L
(F32.0
L4204144L
Vfind_field
p1617
tp1618
sL22248L
(F4.0
L4216448L
Vxstrtoul
p1619
tp1620
sL24301L
(F8.0
L4217888L
Vrpl_fclose
p1621
tp1622
sL9967L
(F64.0
L4204144L
Vfind_field
p1623
tp1624
sL22255L
(F1.3333333333333333
L4216448L
Vxstrtoul
p1625
tp1626
sL7920L
(F3120.7619047619046
L4200416L
Vmain
p1627
tp1628
sL16112L
(F16.0
L4208720L
Vquotearg_buffer_restyled
p1629
tp1630
sL18160L
(F1.0
L4212464L
Vquotearg_alloc_mem
p1631
tp1632
sL9972L
(F128.0
L4204144L
Vfind_field
p1633
tp1634
sL12022L
(F1.0
L4206272L
V__xargmatch_internal
p1635
tp1636
sL7928L
(F3120.7619047619046
L4200416L
Vmain
p1637
tp1638
sL16120L
(F32.0
L4208720L
Vquotearg_buffer_restyled
p1639
tp1640
sL9977L
(F1.0893617021276596
L4204144L
Vfind_field
p1641
tp1642
sL22265L
(F4.0
L4216448L
Vxstrtoul
p1643
tp1644
sL22270L
(F5.12
L4216448L
Vxstrtoul
p1645
tp1646
sL16128L
(F64.0
L4208720L
Vquotearg_buffer_restyled
p1647
tp1648
sL20224L
(F44.0
L4213856L
Vversion_etc_arn
p1649
tp1650
sL24322L
(F4.0
L4217888L
Vrpl_fclose
p1651
tp1652
sL22275L
(F4.4885779313832925
L4216448L
Vxstrtoul
p1653
tp1654
sL7941L
(F12483.047619047618
L4200416L
Vmain
p1655
tp1656
sL12037L
(F2.0
L4206272L
V__xargmatch_internal
p1657
tp1658
sL14087L
(F2.0
L4208352L
Vquoting_options_from_style
p1659
tp1660
sL16136L
(F32.0
L4208720L
Vquotearg_buffer_restyled
p1661
tp1662
sL22295L
(F16.0
L4216448L
Vxstrtoul
p1663
tp1664
sL26392L
(F18724.571428571428
L4219888L
Vlocale_charset
p1665
tp1666
sL10009L
(F1.3333333333333333
L4204144L
Vfind_field
p1667
tp1668
sL26400L
(F585.1428571428571
L4219888L
Vlocale_charset
p1669
tp1670
sL26405L
(F234.05714285714285
L4219888L
Vlocale_charset
p1671
tp1672
sL24361L
(F8.0
L4217888L
Vrpl_fclose
p1673
tp1674
sL7984L
(F6241.523809523809
L4200416L
Vmain
p1675
tp1676
sL10032L
(F1.0
L4204336L
Vlava_get
p1677
tp1678
sL12080L
(F1.0
L4206384L
Vargmatch_to_argument
p1679
tp1680
sL16176L
(F16.0
L4208720L
Vquotearg_buffer_restyled
p1681
tp1682
sL20272L
(F44.0
L4213856L
Vversion_etc_arn
p1683
tp1684
sL22320L
(F8.0
L4216448L
Vxstrtoul
p1685
tp1686
sL5936L
(F2.0
L4219456L
Vrpl_fseeko
p1687
tp1688
sL26418L
(F334.3673469387755
L4219888L
Vlocale_charset
p1689
tp1690
sL7990L
(F12483.047619047618
L4200416L
Vmain
p1691
tp1692
sL16184L
(F32.0
L4208720L
Vquotearg_buffer_restyled
p1693
tp1694
sL7995L
(F24966.095238095237
L4200416L
Vmain
p1695
tp1696
sL26427L
(F33.377132671250315
L4219888L
Vlocale_charset
p1697
tp1698
sL24382L
(F4.0
L4217888L
Vrpl_fclose
p1699
tp1700
sL8000L
(F49932.19047619047
L4200416L
Vmain
p1701
tp1702
sL12096L
(F2.0
L4206384L
Vargmatch_to_argument
p1703
tp1704
sL16192L
(F64.0
L4208720L
Vquotearg_buffer_restyled
p1705
tp1706
sL10053L
(F2.0
L4204336L
Vlava_get
p1707
tp1708
sL8007L
(F19972.876190476192
L4200416L
Vmain
p1709
tp1710
sL16200L
(F32.0
L4208720L
Vquotearg_buffer_restyled
p1711
tp1712
sL22346L
(F16.0
L4216448L
Vxstrtoul
p1713
tp1714
sL10059L
(F4.0
L4204336L
Vlava_get
p1715
tp1716
sL26444L
(F66.75426534250063
L4219888L
Vlocale_charset
p1717
tp1718
sL10064L
(F1.3333333333333333
L4204336L
Vlava_get
p1719
tp1720
sL12112L
(F4.0
L4206384L
Vargmatch_to_argument
p1721
tp1722
sL26449L
(F5.1511888386716445
L4219888L
Vlocale_charset
p1723
tp1724
sL22354L
(F32.0
L4216448L
Vxstrtoul
p1725
tp1726
sL22356L
(F21.333333333333332
L4216448L
Vxstrtoul
p1727
tp1728
sL22361L
(F64.0
L4216448L
Vxstrtoul
p1729
tp1730
sL26457L
(F2.4220115675296117
L4219888L
Vlocale_charset
p1731
tp1732
sL14170L
(F4.0
L4208352L
Vquoting_options_from_style
p1733
tp1734
sL24411L
(F2.6666666666666665
L4217888L
Vrpl_fclose
p1735
tp1736
sL8028L
(F39945.752380952385
L4200416L
Vmain
p1737
tp1738
sL12127L
(F1.6
L4206384L
Vargmatch_to_argument
p1739
tp1740
sL14175L
(F2.0
L4208352L
Vquoting_options_from_style
p1741
tp1742
sL5984L
(F1.0
L4221472L
Vatexit
p1743
tp1744
sL14180L
(F4.0
L4208352L
Vquoting_options_from_style
p1745
tp1746
sL26469L
(F4.571428571428571
L4219888L
Vlocale_charset
p1747
tp1748
sL22374L
(F31.995193029893343
L4216448L
Vxstrtoul
p1749
tp1750
sL24423L
(F5.333333333333333
L4217888L
Vrpl_fclose
p1751
tp1752
sL14185L
(F1.0
L4208496L
Vgettext_quote
p1753
tp1754
sL20329L
(F22.0
L4213856L
Vversion_etc_arn
p1755
tp1756
sL8045L
(F85.33333333333333
L4200416L
Vmain
p1757
tp1758
sL26477L
(F18.285714285714285
L4219888L
Vlocale_charset
p1759
tp1760
sL14192L
(F1.0
L4208496L
Vgettext_quote
p1761
tp1762
sL16240L
(F16.0
L4208720L
Vquotearg_buffer_restyled
p1763
tp1764
sL22384L
(F32.0
L4216448L
Vxstrtoul
p1765
tp1766
sL12145L
(F1.0666666666666667
L4206384L
Vargmatch_to_argument
p1767
tp1768
sL26485L
(F5.585256205390434
L4219888L
Vlocale_charset
p1769
tp1770
sL8055L
(F170.66666666666666
L4200416L
Vmain
p1771
tp1772
sL22394L
(F64.0
L4216448L
Vxstrtoul
p1773
tp1774
sL8060L
(F21.333333333333332
L4200416L
Vmain
p1775
tp1776
sL22396L
(F128.0
L4216448L
Vxstrtoul
p1777
tp1778
sL26493L
(F4681.142857142857
L4219888L
Vlocale_charset
p1779
tp1780
sL24447L
(F5.333333333333333
L4217888L
Vrpl_fclose
p1781
tp1782
sL10112L
(F1.0
L4204416L
Vusage
p1783
tp1784
sL8070L
(F42.666666666666664
L4200416L
Vmain
p1785
tp1786
sL8075L
(F1560.3809523809523
L4200416L
Vmain
p1787
tp1788
sL14219L
(F2.0
L4208496L
Vgettext_quote
p1789
tp1790
sL14224L
(F1.0178926441351888
L4208496L
Vgettext_quote
p1791
tp1792
sL24464L
(F3.2
L4217888L
Vrpl_fclose
p1793
tp1794
sL24467L
(F1.2307692307692308
L4217888L
Vrpl_fclose
p1795
tp1796
sL16280L
(F16.0
L4208720L
Vquotearg_buffer_restyled
p1797
tp1798
sL8091L
(F3120.7619047619046
L4200416L
Vmain
p1799
tp1800
sL22431L
(F85.33333333333333
L4216448L
Vxstrtoul
p1801
tp1802
sL8096L
(F225.20962199312714
L4200416L
Vmain
p1803
tp1804
sL12192L
(F1.0
L4206496L
Vclose_stdout
p1805
tp1806
sL20384L
(F44.0
L4213856L
Vversion_etc_arn
p1807
tp1808
sL24480L
(F10.666666666666666
L4217888L
Vrpl_fclose
p1809
tp1810
sL26530L
(F9362.285714285714
L4219888L
Vlocale_charset
p1811
tp1812
sL10154L
(F2.0
L4204416L
Vusage
p1813
tp1814
sL8112L
(F450.4192439862543
L4200416L
Vmain
p1815
tp1816
sL14256L
(F2.0
L4208496L
Vgettext_quote
p1817
tp1818
sL24496L
(F1.0
L4218800L
Vrpl_fflush
p1819
tp1820
sL18356L
(F2.0
L4212464L
Vquotearg_alloc_mem
p1821
tp1822
sL12214L
(F2.0
L4206496L
Vclose_stdout
p1823
tp1824
sL26554L
(F16.0
L4219888L
Vlocale_charset
p1825
tp1826
sL14268L
(F4.0
L4208496L
Vgettext_quote
p1827
tp1828
sL24508L
(F2.0
L4218800L
Vrpl_fflush
p1829
tp1830
sL18365L
(F1.0
L4212464L
Vquotearg_alloc_mem
p1831
tp1832
sL12223L
(F4.0
L4206496L
Vclose_stdout
p1833
tp1834
sL26563L
(F4.923076923076923
L4219888L
Vlocale_charset
p1835
tp1836
sL22471L
(F512.0
L4216448L
Vxstrtoul
p1837
tp1838
sL14280L
(F8.0
L4208496L
Vgettext_quote
p1839
tp1840
sL16328L
(F16.0
L4208720L
Vquotearg_buffer_restyled
p1841
tp1842
sL26568L
(F1.0
L4220880L
Vstrcoll_loop
p1843
tp1844
sL12233L
(F1.6
L4206496L
Vclose_stdout
p1845
tp1846
sL24521L
(F1.3333333333333333
L4218800L
Vrpl_fflush
p1847
tp1848
sL14286L
(F16.0
L4208496L
Vgettext_quote
p1849
tp1850
sL10191L
(F1.8285714285714285
L4204416L
Vusage
p1851
tp1852
sL26576L
(F1.0
L4220880L
Vstrcoll_loop
p1853
tp1854
sL14292L
(F32.0
L4208496L
Vgettext_quote
p1855
tp1856
sL22484L
(F1024.0
L4216448L
Vxstrtoul
p1857
tp1858
sL8150L
(F900.8384879725086
L4200416L
Vmain
p1859
tp1860
sL10198L
(F2.0
L4204416L
Vusage
p1861
tp1862
sL12249L
(F3.2
L4206496L
Vclose_stdout
p1863
tp1864
sL14298L
(F64.0
L4208496L
Vgettext_quote
p1865
tp1866
sL22492L
(F2048.0
L4216448L
Vxstrtoul
p1867
tp1868
sL6112L
(F1.0
L4200416L
Vmain
p1869
tp1870
sL12256L
(F2.6666666666666665
L4206496L
Vclose_stdout
p1871
tp1872
sL22500L
(F4096.0
L4216448L
Vxstrtoul
p1873
tp1874
sL8167L
(F112.60481099656357
L4200416L
Vmain
p1875
tp1876
sL20456L
(F2.0
L4213856L
Vversion_etc_arn
p1877
tp1878
sL24555L
(F2.6666666666666665
L4218800L
Vrpl_fflush
p1879
tp1880
sL22509L
(F8192.0
L4216448L
Vxstrtoul
p1881
tp1882
sL18416L
(F1.0
L4212720L
Vquotearg_free
p1883
tp1884
sL22513L
(F8192.0
L4216448L
Vxstrtoul
p1885
tp1886
sL14328L
(F4.0
L4208496L
Vgettext_quote
p1887
tp1888
sL16376L
(F16.0
L4208720L
Vquotearg_buffer_restyled
p1889
tp1890
sL22520L
(F16.0
L4216448L
Vxstrtoul
p1891
tp1892
sL26616L
(F2.0
L4220880L
Vstrcoll_loop
p1893
tp1894
sL16378L
(F32.0
L4208720L
Vquotearg_buffer_restyled
p1895
tp1896
sL8188L
(F225.20962199312714
L4200416L
Vmain
p1897
tp1898
sL24575L
(F1.3333333333333333
L4218800L
Vrpl_fflush
p1899
tp1900
s.