(dp0
L12288L
(F5.333333333333333
L4221472L
tp1
sL8193L
(F1365.3333333333333
L4221472L
tp2
sL22529L
(F32.0
L4221472L
tp3
sL14340L
(F8.0
L4221472L
tp4
sL18438L
(F2.0
L4221472L
tp5
sL20488L
(F3.666666666666667
L4221472L
tp6
sL14346L
(F16.0
L4221472L
tp7
sL22542L
(F64.0
L4221472L
tp8
sL14352L
(F32.0
L4221472L
tp9
sL8212L
(F1323.959595959596
L4221472L
tp10
sL14362L
(F64.0
L4221472L
tp11
sL26654L
(F4.0
L4221472L
tp12
sL18464L
(F1.3333333333333333
L4221472L
tp13
sL12323L
(F1.4545454545454546
L4221472L
tp14
sL26659L
(F0.8888888888888888
L4221472L
tp15
sL14372L
(F128.0
L4221472L
tp16
sL8229L
(F2730.6666666666665
L4221472L
tp17
sL24613L
(F2.6666666666666665
L4221472L
tp18
sL16422L
(F32.0
L4221472L
tp19
sL12334L
(F5.333333333333333
L4221472L
tp20
sL14382L
(F256.0
L4221472L
tp21
sL18481L
(F1.3333333333333333
L4221472L
tp22
sL22578L
(F128.0
L4221472L
tp23
sL14392L
(F512.0
L4221472L
tp24
sL24633L
(F1.3333333333333333
L4221472L
tp25
sL26681L
(F2.0
L4221472L
tp26
sL18495L
(F2.6666666666666665
L4221472L
tp27
sL22592L
(F232.52401746724888
L4221472L
tp28
sL8263L
(F5461.333333333333
L4221472L
tp29
sL22605L
(F106496.0
L4221472L
tp30
sL14416L
(F1.0
L4221472L
tp31
sL20560L
(F1.0
L4221472L
tp32
sL26704L
(F4.0
L4221472L
tp33
sL16466L
(F18.285714285714285
L4221472L
tp34
sL22610L
(F35498.666666666664
L4221472L
tp35
sL22615L
(F212992.0
L4221472L
tp36
sL16472L
(F51.2
L4221472L
tp37
sL20569L
(F2.0
L4221472L
tp38
sL18522L
(F1.3333333333333333
L4221472L
tp39
sL8284L
(F2730.6666666666665
L4221472L
tp40
sL22620L
(F7745.163636363636
L4221472L
tp41
sL12384L
(F1.0
L4221472L
tp42
sL20576L
(F1.3333333333333333
L4221472L
tp43
sL18531L
(F2.6666666666666665
L4221472L
tp44
sL24675L
(F2.6666666666666665
L4221472L
tp45
sL16484L
(F102.4
L4221472L
tp46
sL12389L
(F2.0
L4221472L
tp47
sL20587L
(F1.3333333333333333
L4221472L
tp48
sL20592L
(F1.0
L4221472L
tp49
sL16496L
(F68.26666666666667
L4221472L
tp50
sL26736L
(F8.0
L4221472L
tp51
sL22644L
(F106496.0
L4221472L
tp52
sL16501L
(F204.8
L4221472L
tp53
sL18550L
(F1.3333333333333333
L4221472L
tp54
sL24695L
(F1.1428571428571428
L4221472L
tp55
sL16504L
(F102.4
L4221472L
tp56
sL8314L
(F5461.333333333333
L4221472L
tp57
sL22653L
(F106496.0
L4221472L
tp58
sL12416L
(F2.0
L4221472L
tp59
sL16516L
(F29.257142857142856
L4221472L
tp60
sL12432L
(F1.0
L4221472L
tp61
sL20624L
(F2.0
L4221472L
tp62
sL26768L
(F1.0
L4221472L
tp63
sL22673L
(F35498.666666666664
L4221472L
tp64
sL24728L
(F4.0
L4221472L
tp65
sL22682L
(F212992.0
L4221472L
tp66
sL8348L
(F10922.666666666666
L4221472L
tp67
sL12453L
(F2.0
L4221472L
tp68
sL22695L
(F141994.66666666666
L4221472L
tp69
sL20649L
(F2.0
L4221472L
tp70
sL12459L
(F4.0
L4221472L
tp71
sL22703L
(F106496.0
L4221472L
tp72
sL26799L
(F1.3333333333333333
L4221472L
tp73
sL8368L
(F5461.333333333333
L4221472L
tp74
sL20659L
(F0.8
L4221472L
tp75
sL24762L
(F8.0
L4221472L
tp76
sL20667L
(F2.0
L4221472L
tp77
sL12477L
(F2.0
L4221472L
tp78
sL16576L
(F36.57142857142857
L4221472L
tp79
sL22723L
(F35498.666666666664
L4221472L
tp80
sL12488L
(F2.0
L4221472L
tp81
sL22728L
(F23665.777777777777
L4221472L
tp82
sL24782L
(F4.0
L4221472L
tp83
sL16592L
(F512.0
L4221472L
tp84
sL20691L
(F4.0
L4221472L
tp85
sL14549L
(F2.0
L4221472L
tp86
sL22742L
(F106496.0
L4221472L
tp87
sL8407L
(F10922.666666666666
L4221472L
tp88
sL20696L
(F1.3333333333333333
L4221472L
tp89
sL14554L
(F2.0
L4221472L
tp90
sL12512L
(F1.0
L4221472L
tp91
sL6368L
(F1.2655096671413744
L4221472L
tp92
sL16608L
(F3855.0588235294117
L4221472L
tp93
sL6376L
(F4.0
L4221472L
tp94
sL14568L
(F8.0
L4221472L
tp95
sL22762L
(F35498.666666666664
L4221472L
tp96
sL8427L
(F5461.333333333333
L4221472L
tp97
sL20720L
(F8.0
L4221472L
tp98
sL6385L
(F8.0
L4221472L
tp99
sL22770L
(F32768.0
L4221472L
tp100
sL24820L
(F8.0
L4221472L
tp101
sL20725L
(F8.0
L4221472L
tp102
sL16630L
(F3855.0588235294117
L4221472L
tp103
sL20730L
(F1.0
L4221472L
tp104
sL22779L
(F212992.0
L4221472L
tp105
sL6397L
(F3.2
L4221472L
tp106
sL18688L
(F1.0
L4221472L
tp107
sL20736L
(F1.0
L4221472L
tp108
sL22786L
(F106496.0
L4221472L
tp109
sL6406L
(F6.4
L4221472L
tp110
sL12552L
(F2.0
L4221472L
tp111
sL14600L
(F2.12008281573499
L4221472L
tp112
sL24840L
(F4.0
L4221472L
tp113
sL22795L
(F425984.0
L4221472L
tp114
sL22800L
(F106496.0
L4221472L
tp115
sL26896L
(F2.0
L4221472L
tp116
sL12561L
(F4.0
L4221472L
tp117
sL8467L
(F10922.666666666666
L4221472L
tp118
sL20757L
(F2.0
L4221472L
tp119
sL12569L
(F8.0
L4221472L
tp120
sL6430L
(F0.8453858259590826
L4221472L
tp121
sL26911L
(F4.0
L4221472L
tp122
sL6435L
(F1.2837861662324432
L4221472L
tp123
sL22820L
(F35498.666666666664
L4221472L
tp124
sL8487L
(F5461.333333333333
L4221472L
tp125
sL14631L
(F2.120014233493999
L4221472L
tp126
sL16681L
(F3747.109857896647
L4221472L
tp127
sL12590L
(F2.6666666666666665
L4221472L
tp128
sL22830L
(F212992.0
L4221472L
tp129
sL24882L
(F8.0
L4221472L
tp130
sL6452L
(F2.8444444444444446
L4221472L
tp131
sL22837L
(F106496.0
L4221472L
tp132
sL14647L
(F16.0
L4221472L
tp133
sL14656L
(F15.995800643924703
L4221472L
tp134
sL26944L
(F1.0
L4221472L
tp135
sL6465L
(F8.0
L4221472L
tp136
sL22850L
(F30427.428571428565
L4221472L
tp137
sL12612L
(F1.1428571428571428
L4221472L
tp138
sL24902L
(F4.0
L4221472L
tp139
sL18759L
(F2.0
L4221472L
tp140
sL22855L
(F212992.0
L4221472L
tp141
sL14664L
(F15.995800643924703
L4221472L
tp142
sL6474L
(F16.0
L4221472L
tp143
sL20812L
(F1.0
L4221472L
tp144
sL18766L
(F2.0
L4221472L
tp145
sL8527L
(F10922.666666666666
L4221472L
tp146
sL18771L
(F1.0
L4221472L
tp147
sL12629L
(F16.0
L4221472L
tp148
sL22870L
(F53248.0
L4221472L
tp149
sL26966L
(F1.3333333333333333
L4221472L
tp150
sL6487L
(F8.0
L4221472L
tp151
sL14682L
(F64.0
L4221472L
tp152
sL22875L
(F17749.333333333332
L4221472L
tp153
sL18784L
(F1.0
L4221472L
tp154
sL14690L
(F128.0
L4221472L
tp155
sL16738L
(F15420.235294117647
L4221472L
tp156
sL24935L
(F4.0
L4221472L
tp157
sL12650L
(F32.0
L4221472L
tp158
sL16748L
(F30840.470588235294
L4221472L
tp159
sL22894L
(F106496.0
L4221472L
tp160
sL6511L
(F11.636363636363637
L4221472L
tp161
sL12655L
(F6.095238095238095
L4221472L
tp162
sL26992L
(F2.0
L4221472L
tp163
sL14706L
(F256.0
L4221472L
tp164
sL12659L
(F128.0
L4221472L
tp165
sL16758L
(F61680.94117647059
L4221472L
tp166
sL14712L
(F512.0
L4221472L
tp167
sL22905L
(F106496.0
L4221472L
tp168
sL16765L
(F123361.88235294117
L4221472L
tp169
sL16772L
(F246723.76470588235
L4221472L
tp170
sL12677L
(F85.33333333333333
L4221472L
tp171
sL24969L
(F16.0
L4221472L
tp172
sL27017L
(F4.0
L4221472L
tp173
sL16778L
(F493447.5294117647
L4221472L
tp174
sL22925L
(F35498.666666666664
L4221472L
tp175
sL6542L
(F11.130434782608695
L4221472L
tp176
sL8596L
(F21845.333333333332
L4221472L
tp177
sL12694L
(F10.24
L4221472L
tp178
sL14742L
(F128.0
L4221472L
tp179
sL6551L
(F19.692307692307693
L4221472L
tp180
sL22935L
(F212992.0
L4221472L
tp181
sL16792L
(F358870.9304812834
L4221472L
tp182
sL20890L
(F2.0
L4221472L
tp183
sL24989L
(F8.0
L4221472L
tp184
sL22942L
(F106496.0
L4221472L
tp185
sL14751L
(F256.0
L4221472L
tp186
sL27040L
(F1.0
L4221472L
tp187
sL20898L
(F2.0
L4221472L
tp188
sL16806L
(F986895.0588235294
L4221472L
tp189
sL18856L
(F2.0
L4221472L
tp190
sL12713L
(F17.066666666666666
L4221472L
tp191
sL22955L
(F30427.428571428565
L4221472L
tp192
sL12718L
(F31.03030303030303
L4221472L
tp193
sL22960L
(F212992.0
L4221472L
tp194
sL18865L
(F2.0
L4221472L
tp195
sL12723L
(F682.6666666666666
L4221472L
tp196
sL6580L
(F26.94736842105263
L4221472L
tp197
sL12728L
(F341.3333333333333
L4221472L
tp198
sL16831L
(F657930.0392156863
L4221472L
tp199
sL22975L
(F106496.0
L4221472L
tp200
sL25027L
(F16.0
L4221472L
tp201
sL16840L
(F66908.13958125623
L4221472L
tp202
sL12752L
(F8.0
L4221472L
tp203
sL14800L
(F512.0
L4221472L
tp204
sL22995L
(F35498.666666666664
L4221472L
tp205
sL12756L
(F5.333333333333333
L4221472L
tp206
sL27094L
(F2.0
L4221472L
tp207
sL25047L
(F8.0
L4221472L
tp208
sL14811L
(F1024.0
L4221472L
tp209
sL12764L
(F9.142857142857142
L4221472L
tp210
sL23005L
(F212992.0
L4221472L
tp211
sL18912L
(F1.0
L4221472L
tp212
sL27104L
(F1.3333333333333333
L4221472L
tp213
sL6626L
(F341.3333333333333
L4221472L
tp214
sL23012L
(F106496.0
L4221472L
tp215
sL14824L
(F33.03225806451613
L4221472L
tp216
sL12778L
(F11.636363636363637
L4221472L
tp217
sL6635L
(F682.6666666666666
L4221472L
tp218
sL12784L
(F682.6666666666666
L4221472L
tp219
sL23025L
(F30427.428571428565
L4221472L
tp220
sL14838L
(F2048.0
L4221472L
tp221
sL23030L
(F212992.0
L4221472L
tp222
sL27126L
(F1.3333333333333333
L4221472L
tp223
sL16887L
(F13826.90099927887
L4221472L
tp224
sL6648L
(F195.04761904761904
L4221472L
tp225
sL14842L
(F2048.0
L4221472L
tp226
sL12796L
(F682.6666666666666
L4221472L
tp227
sL8704L
(F10922.666666666666
L4221472L
tp228
sL8708L
(F43690.666666666664
L4221472L
tp229
sL23045L
(F106496.0
L4221472L
tp230
sL25093L
(F16.0
L4221472L
tp231
sL12808L
(F341.3333333333333
L4221472L
tp232
sL14856L
(F32768.0
L4221472L
tp233
sL23050L
(F35498.666666666664
L4221472L
tp234
sL8721L
(F12483.047619047618
L4221472L
tp235
sL14869L
(F65536.0
L4221472L
tp236
sL12824L
(F256.0
L4221472L
tp237
sL6685L
(F390.0952380952381
L4221472L
tp238
sL23069L
(F212992.0
L4221472L
tp239
sL14878L
(F131072.0
L4221472L
tp240
sL25120L
(F8.0
L4221472L
tp241
sL27168L
(F1.0
L4221472L
tp242
sL16929L
(F8408.051619369793
L4221472L
tp243
sL23080L
(F106496.0
L4221472L
tp244
sL14889L
(F262144.0
L4221472L
tp245
sL16939L
(F27653.80199855774
L4221472L
tp246
sL27180L
(F2.0
L4221472L
tp247
sL21040L
(F1.0
L4221472L
tp248
sL16944L
(F32768.0
L4221472L
tp249
sL12848L
(F102.4
L4221472L
tp250
sL14902L
(F524288.0
L4221472L
tp251
sL16955L
(F65536.0
L4221472L
tp252
sL23100L
(F35498.666666666664
L4221472L
tp253
sL21054L
(F2.0
L4221472L
tp254
sL12864L
(F4.0
L4221472L
tp255
sL25152L
(F1.0
L4221472L
tp256
sL27200L
(F2.0
L4221472L
tp257
sL14914L
(F1048576.0
L4221472L
tp258
sL21059L
(F1.3333333333333333
L4221472L
tp259
sL21061L
(F4.0
L4221472L
tp260
sL23110L
(F212992.0
L4221472L
tp261
sL16968L
(F1973790.1176470588
L4221472L
tp262
sL8778L
(F7281.777777777777
L4221472L
tp263
sL21066L
(F1.0
L4221472L
tp264
sL25162L
(F1.1428571428571428
L4221472L
tp265
sL14924L
(F2097152.0
L4221472L
tp266
sL23117L
(F106496.0
L4221472L
tp267
sL10832L
(F4.0
L4221472L
tp268
sL12880L
(F2.0
L4221472L
tp269
sL21072L
(F1.0
L4221472L
tp270
sL25168L
(F2.0
L4221472L
tp271
sL8788L
(F29127.11111111111
L4221472L
tp272
sL16984L
(F65536.0
L4221472L
tp273
sL8793L
(F58254.22222222222
L4221472L
tp274
sL23130L
(F30427.428571428565
L4221472L
tp275
sL25178L
(F4.0
L4221472L
tp276
sL10844L
(F1.6
L4221472L
tp277
sL14940L
(F4194304.0
L4221472L
tp278
sL8798L
(F116508.44444444444
L4221472L
tp279
sL23135L
(F212992.0
L4221472L
tp280
sL12896L
(F1.0
L4221472L
tp281
sL6752L
(F367.1484593837535
L4221472L
tp282
sL21089L
(F2.0
L4221472L
tp283
sL25185L
(F8.0
L4221472L
tp284
sL8803L
(F233016.88888888888
L4221472L
tp285
sL14951L
(F8388608.0
L4221472L
tp286
sL21095L
(F2.0
L4221472L
tp287
sL10856L
(F2.2857142857142856
L4221472L
tp288
sL17000L
(F1.7777777777777777
L4221472L
tp289
sL8811L
(F35848.75213675214
L4221472L
tp290
sL17005L
(F7710.117647058823
L4221472L
tp291
sL14958L
(F16777216.0
L4221472L
tp292
sL23150L
(F106496.0
L4221472L
tp293
sL12912L
(F2.0
L4221472L
tp294
sL6768L
(F693.5026455026455
L4221472L
tp295
sL21104L
(F1.0
L4221472L
tp296
sL12917L
(F4.0
L4221472L
tp297
sL14967L
(F8388608.0
L4221472L
tp298
sL12923L
(F8.0
L4221472L
tp299
sL8832L
(F71697.50427350428
L4221472L
tp300
sL21120L
(F1.0
L4221472L
tp301
sL10881L
(F8.0
L4221472L
tp302
sL14978L
(F16777216.0
L4221472L
tp303
sL23170L
(F35498.666666666664
L4221472L
tp304
sL6789L
(F1560.3809523809523
L4221472L
tp305
sL25222L
(F16.0
L4221472L
tp306
sL12936L
(F2.6666666666666665
L4221472L
tp307
sL21129L
(F2.0
L4221472L
tp308
sL14988L
(F8388608.0
L4221472L
tp309
sL23180L
(F212992.0
L4221472L
tp310
sL19085L
(F2.0
L4221472L
tp311
sL21134L
(F1.3333333333333333
L4221472L
tp312
sL8849L
(F10922.666666666666
L4221472L
tp313
sL17042L
(F524288.0
L4221472L
tp314
sL19090L
(F2.0
L4221472L
tp315
sL25234L
(F8.0
L4221472L
tp316
sL23187L
(F106496.0
L4221472L
tp317
sL14999L
(F16777216.0
L4221472L
tp318
sL21147L
(F2.6666666666666665
L4221472L
tp319
sL12960L
(F2.0
L4221472L
tp320
sL17056L
(F61680.94117647059
L4221472L
tp321
sL21152L
(F1.7777777777777777
L4221472L
tp322
sL23200L
(F30427.428571428565
L4221472L
tp323
sL25248L
(F1.0
L4221472L
tp324
sL15009L
(F8388608.0
L4221472L
tp325
sL23205L
(F212992.0
L4221472L
tp326
sL8870L
(F21845.333333333332
L4221472L
tp327
sL21160L
(F4.0
L4221472L
tp328
sL15020L
(F16777216.0
L4221472L
tp329
sL10928L
(F16.0
L4221472L
tp330
sL21169L
(F5.333333333333333
L4221472L
tp331
sL23220L
(F2048.0
L4221472L
tp332
sL15030L
(F8388608.0
L4221472L
tp333
sL21174L
(F1.0
L4221472L
tp334
sL8895L
(F1820.4444444444443
L4221472L
tp335
sL15040L
(F3372.982710092481
L4221472L
tp336
sL21184L
(F1.0
L4221472L
tp337
sL15047L
(F6188.571007008484
L4221472L
tp338
sL23240L
(F273.06666666666666
L4221472L
tp339
sL25289L
(F2.0
L4221472L
tp340
sL10954L
(F6.4
L4221472L
tp341
sL13008L
(F1.0
L4221472L
tp342
sL15057L
(F87609.48302872063
L4221472L
tp343
sL8913L
(F3640.8888888888887
L4221472L
tp344
sL21204L
(F2.0
L4221472L
tp345
sL23253L
(F4096.0
L4221472L
tp346
sL23257L
(F4096.0
L4221472L
tp347
sL8922L
(F7281.777777777777
L4221472L
tp348
sL17114L
(F123361.88235294117
L4221472L
tp349
sL21210L
(F2.0
L4221472L
tp350
sL25309L
(F1.0
L4221472L
tp351
sL17120L
(F246723.76470588235
L4221472L
tp352
sL19168L
(F1.0
L4221472L
tp353
sL21216L
(F1.0
L4221472L
tp354
sL23264L
(F53248.0
L4221472L
tp355
sL6882L
(F3120.7619047619046
L4221472L
tp356
sL15080L
(F25031.280865348752
L4221472L
tp357
sL17128L
(F493447.5294117647
L4221472L
tp358
sL23272L
(F53248.0
L4221472L
tp359
sL6890L
(F6241.523809523809
L4221472L
tp360
sL21227L
(F2.0
L4221472L
tp361
sL15085L
(F26935.12502508529
L4221472L
tp362
sL8943L
(F14563.555555555555
L4221472L
tp363
sL17135L
(F197379.01176470588
L4221472L
tp364
sL23282L
(F53248.0
L4221472L
tp365
sL15096L
(F77875.09602552945
L4221472L
tp366
sL23290L
(F53248.0
L4221472L
tp367
sL17149L
(F281970.0168067227
L4221472L
tp368
sL6910L
(F3120.7619047619046
L4221472L
tp369
sL15103L
(F155750.1920510589
L4221472L
tp370
sL21247L
(F4.0
L4221472L
tp371
sL17152L
(F70492.50420168067
L4221472L
tp372
sL8963L
(F39945.752380952385
L4221472L
tp373
sL25347L
(F2.0
L4221472L
tp374
sL13060L
(F2.0
L4221472L
tp375
sL11015L
(F4.571428571428571
L4221472L
tp376
sL17159L
(F30840.470588235294
L4221472L
tp377
sL15112L
(F77875.09602552945
L4221472L
tp378
sL21258L
(F1.3333333333333333
L4221472L
tp379
sL15116L
(F24724.643640047896
L4221472L
tp380
sL13072L
(F4.0
L4221472L
tp381
sL15120L
(F11225.50311546021
L4221472L
tp382
sL23313L
(F53248.0
L4221472L
tp383
sL13077L
(F8.0
L4221472L
tp384
sL15127L
(F60945.727324327396
L4221472L
tp385
sL25367L
(F1.0
L4221472L
tp386
sL13080L
(F7.111111111111111
L4221472L
tp387
sL8986L
(F170.66666666666666
L4221472L
tp388
sL15136L
(F30472.863662163698
L4221472L
tp389
sL21280L
(F2.0
L4221472L
tp390
sL21285L
(F4.0
L4221472L
tp391
sL13096L
(F1.7534246575342465
L4221472L
tp392
sL23336L
(F53248.0
L4221472L
tp393
sL6962L
(F542.7412008281574
L4221472L
tp394
sL11058L
(F8.0
L4221472L
tp395
sL15156L
(F15.995800643924703
L4221472L
tp396
sL17205L
(F64.0
L4221472L
tp397
sL13112L
(F4.0
L4221472L
tp398
sL9018L
(F42.666666666666664
L4221472L
tp399
sL6975L
(F201.80446497305618
L4221472L
tp400
sL21311L
(F4.0
L4221472L
tp401
sL23359L
(F53248.0
L4221472L
tp402
sL13121L
(F8.0
L4221472L
tp403
sL25409L
(F2.0
L4221472L
tp404
sL15172L
(F15.997900046385697
L4221472L
tp405
sL21317L
(F1.0
L4221472L
tp406
sL6987L
(F509.5121477162293
L4221472L
tp407
sL13131L
(F16.0
L4221472L
tp408
sL21328L
(F1.0
L4221472L
tp409
sL17234L
(F128.0
L4221472L
tp410
sL6996L
(F264.59147110774666
L4221472L
tp411
sL25429L
(F1.0
L4221472L
tp412
sL19286L
(F2.0
L4221472L
tp413
sL23382L
(F53248.0
L4221472L
tp414
sL15192L
(F31.995800092771393
L4221472L
tp415
sL13146L
(F32.0
L4221472L
tp416
sL19291L
(F4.0
L4221472L
tp417
sL9052L
(F6.4
L4221472L
tp418
sL9056L
(F6.310336526888451
L4221472L
tp419
sL11105L
(F16.0
L4221472L
tp420
sL15201L
(F21.33053339518093
L4221472L
tp421
sL13158L
(F7.111111111111111
L4221472L
tp422
sL23405L
(F53248.0
L4221472L
tp423
sL17263L
(F32.0
L4221472L
tp424
sL15218L
(F42.66106679036186
L4221472L
tp425
sL11127L
(F10.666666666666666
L4221472L
tp426
sL13176L
(F128.0
L4221472L
tp427
sL15225L
(F85.32213358072372
L4221472L
tp428
sL7035L
(F254.75607385811466
L4221472L
tp429
sL21378L
(F2.0
L4221472L
tp430
sL19331L
(F8.0
L4221472L
tp431
sL25475L
(F2.0
L4221472L
tp432
sL23428L
(F53248.0
L4221472L
tp433
sL25479L
(F4.0
L4221472L
tp434
sL19336L
(F1.3333333333333333
L4221472L
tp435
sL19341L
(F8.0
L4221472L
tp436
sL9103L
(F71697.50427350428
L4221472L
tp437
sL15248L
(F56.881422387149144
L4221472L
tp438
sL17296L
(F32.0
L4221472L
tp439
sL25489L
(F2.6666666666666665
L4221472L
tp440
sL15253L
(F170.64426716144743
L4221472L
tp441
sL21398L
(F1.0
L4221472L
tp442
sL15256L
(F85.32213358072372
L4221472L
tp443
sL23451L
(F53248.0
L4221472L
tp444
sL9116L
(F14563.555555555555
L4221472L
tp445
sL25504L
(F2.0
L4221472L
tp446
sL11169L
(F7.111111111111111
L4221472L
tp447
sL15268L
(F24.377752451635345
L4221472L
tp448
sL25508L
(F4.0
L4221472L
tp449
sL7080L
(F509.5121477162293
L4221472L
tp450
sL13224L
(F64.0
L4221472L
tp451
sL9131L
(F509.5121477162293
L4221472L
tp452
sL9136L
(F32.0
L4221472L
tp453
sL11185L
(F32.0
L4221472L
tp454
sL15282L
(F48.75550490327069
L4221472L
tp455
sL23474L
(F26624.0
L4221472L
tp456
sL17332L
(F34.68752876813453
L4221472L
tp457
sL11190L
(F16.0
L4221472L
tp458
sL17337L
(F1.0
L4221472L
tp459
sL23482L
(F819.2
L4221472L
tp460
sL9151L
(F450.4192439862543
L4221472L
tp461
sL21439L
(F2.0
L4221472L
tp462
sL7104L
(F2.6666666666666665
L4221472L
tp463
sL15296L
(F32768.0
L4221472L
tp464
sL17344L
(F1.0
L4221472L
tp465
sL25536L
(F8.0
L4221472L
tp466
sL23497L
(F512.0
L4221472L
tp467
sL13259L
(F128.0
L4221472L
tp468
sL15313L
(F32768.0
L4221472L
tp469
sL21459L
(F1.0
L4221472L
tp470
sL23512L
(F212992.0
L4221472L
tp471
sL25560L
(F4.0
L4221472L
tp472
sL15321L
(F26214.4
L4221472L
tp473
sL13279L
(F64.0
L4221472L
tp474
sL5088L
(F1.0
L4221472L
tp475
sL15330L
(F20164.923076923078
L4221472L
tp476
sL7139L
(F5.333333333333333
L4221472L
tp477
sL21475L
(F2.0
L4221472L
tp478
sL23530L
(F141994.66666666666
L4221472L
tp479
sL7148L
(F10.666666666666666
L4221472L
tp480
sL15341L
(F24966.095238095237
L4221472L
tp481
sL7150L
(F21.333333333333332
L4221472L
tp482
sL5104L
(F2.0
L4221472L
tp483
sL11248L
(F1.0
L4221472L
tp484
sL25584L
(F1.0
L4221472L
tp485
sL5109L
(F1.0
L4221472L
tp486
sL7159L
(F42.666666666666664
L4221472L
tp487
sL21495L
(F4.0
L4221472L
tp488
sL15352L
(F49932.19047619047
L4221472L
tp489
sL17402L
(F2.0
L4221472L
tp490
sL23547L
(F2.0
L4221472L
tp491
sL7165L
(F85.33333333333333
L4221472L
tp492
sL9216L
(F1.0
L4221472L
tp493
sL15360L
(F927.4592424446587
L4221472L
tp494
sL21506L
(F1.3333333333333333
L4221472L
tp495
sL17411L
(F4.0
L4221472L
tp496
sL15366L
(F59.975959664903456
L4221472L
tp497
sL7174L
(F170.66666666666666
L4221472L
tp498
sL13321L
(F128.0
L4221472L
tp499
sL7183L
(F341.3333333333333
L4221472L
tp500
sL23572L
(F16.0
L4221472L
tp501
sL9237L
(F2.0
L4221472L
tp502
sL7192L
(F3.2639075651177847
L4221472L
tp503
sL23577L
(F1.0
L4221472L
tp504
sL13341L
(F64.0
L4221472L
tp505
sL17438L
(F8.0
L4221472L
tp506
sL9247L
(F4.0
L4221472L
tp507
sL21536L
(F2.0
L4221472L
tp508
sL23584L
(F1.0
L4221472L
tp509
sL21541L
(F4.0
L4221472L
tp510
sL7208L
(F7.037800687285223
L4221472L
tp511
sL11307L
(F2.0
L4221472L
tp512
sL9264L
(F1.3333333333333333
L4221472L
tp513
sL7217L
(F14.075601374570446
L4221472L
tp514
sL25657L
(F2.0
L4221472L
tp515
sL7226L
(F28.151202749140893
L4221472L
tp516
sL17466L
(F4.0
L4221472L
tp517
sL21565L
(F4.0
L4221472L
tp518
sL15422L
(F17.343764384067264
L4221472L
tp519
sL9280L
(F1.0
L4221472L
tp520
sL11328L
(F16.0
L4221472L
tp521
sL25664L
(F10.666666666666666
L4221472L
tp522
sL7237L
(F56.302405498281786
L4221472L
tp523
sL13383L
(F128.0
L4221472L
tp524
sL7242L
(F112.60481099656357
L4221472L
tp525
sL23629L
(F2.0
L4221472L
tp526
sL11342L
(F32.0
L4221472L
tp527
sL7249L
(F225.20962199312714
L4221472L
tp528
sL15445L
(F34.68752876813453
L4221472L
tp529
sL25690L
(F1.6427635907880307
L4221472L
tp530
sL13403L
(F64.0
L4221472L
tp531
sL17500L
(F2.6666666666666665
L4221472L
tp532
sL19552L
(F1.0
L4221472L
tp533
sL23649L
(F1.0
L4221472L
tp534
sL9315L
(F2.0
L4221472L
tp535
sL25699L
(F4.0
L4221472L
tp536
sL9325L
(F4.0
L4221472L
tp537
sL15472L
(F32768.0
L4221472L
tp538
sL21616L
(F1.0
L4221472L
tp539
sL25714L
(F8.0
L4221472L
tp540
sL15477L
(F8738.133333333333
L4221472L
tp541
sL11384L
(F2.5098039215686274
L4221472L
tp542
sL9336L
(F1.3333333333333333
L4221472L
tp543
sL25720L
(F16.0
L4221472L
tp544
sL13435L
(F128.0
L4221472L
tp545
sL15484L
(F65536.0
L4221472L
tp546
sL21630L
(F2.0
L4221472L
tp547
sL25727L
(F6.4
L4221472L
tp548
sL9344L
(F1.0
L4221472L
tp549
sL19584L
(F2.0
L4221472L
tp550
sL21635L
(F2.0
L4221472L
tp551
sL15495L
(F5349.877551020408
L4221472L
tp552
sL23687L
(F2.0
L4221472L
tp553
sL11400L
(F1.4883720930232558
L4221472L
tp554
sL9353L
(F2.0
L4221472L
tp555
sL25740L
(F2.4615384615384617
L4221472L
tp556
sL15504L
(F87381.33333333333
L4221472L
tp557
sL7312L
(F85.33333333333333
L4221472L
tp558
sL7317L
(F170.66666666666666
L4221472L
tp559
sL19610L
(F1.0
L4221472L
tp560
sL9370L
(F1.0
L4221472L
tp561
sL11419L
(F4.0
L4221472L
tp562
sL23707L
(F1.0
L4221472L
tp563
sL9376L
(F1.0
L4221472L
tp564
sL7328L
(F341.3333333333333
L4221472L
tp565
sL15520L
(F32768.0
L4221472L
tp566
sL11432L
(F8.0
L4221472L
tp567
sL7337L
(F682.6666666666666
L4221472L
tp568
sL9387L
(F1.3333333333333333
L4221472L
tp569
sL9392L
(F2.0
L4221472L
tp570
sL11440L
(F16.0
L4221472L
tp571
sL15536L
(F32768.0
L4221472L
tp572
sL17585L
(F5.333333333333333
L4221472L
tp573
sL25778L
(F4.923076923076923
L4221472L
tp574
sL13497L
(F64.0
L4221472L
tp575
sL9402L
(F4.0
L4221472L
tp576
sL15552L
(F32768.0
L4221472L
tp577
sL17601L
(F10.666666666666666
L4221472L
tp578
sL25796L
(F2.0
L4221472L
tp579
sL11461L
(F32.0
L4221472L
tp580
sL23749L
(F2.0
L4221472L
tp581
sL7366L
(F112.60481099656357
L4221472L
tp582
sL11464L
(F5.818181818181818
L4221472L
tp583
sL15568L
(F16384.0
L4221472L
tp584
sL9424L
(F1.0
L4221472L
tp585
sL17619L
(F5.333333333333333
L4221472L
tp586
sL7382L
(F128.69121256750122
L4221472L
tp587
sL25814L
(F4.0
L4221472L
tp588
sL15577L
(F32768.0
L4221472L
tp589
sL23769L
(F1.0
L4221472L
tp590
sL11482L
(F1.8823529411764706
L4221472L
tp591
sL25819L
(F2.6666666666666665
L4221472L
tp592
sL7391L
(F450.4192439862543
L4221472L
tp593
sL13536L
(F64.0
L4221472L
tp594
sL15588L
(F65536.0
L4221472L
tp595
sL15595L
(F131072.0
L4221472L
tp596
sL25835L
(F2.2857142857142856
L4221472L
tp597
sL13548L
(F21.333333333333332
L4221472L
tp598
sL19694L
(F4.0
L4221472L
tp599
sL11504L
(F32.0
L4221472L
tp600
sL15604L
(F65536.0
L4221472L
tp601
sL7414L
(F170.66666666666666
L4221472L
tp602
sL25846L
(F5.333333333333333
L4221472L
tp603
sL9463L
(F2.0
L4221472L
tp604
sL9468L
(F2.6666666666666665
L4221472L
tp605
sL23806L
(F2.0
L4221472L
tp606
sL19712L
(F44.0
L4221472L
tp607
sL11520L
(F8.0
L4221472L
tp608
sL7424L
(F170.66666666666666
L4221472L
tp609
sL15617L
(F131072.0
L4221472L
tp610
sL9480L
(F2.0
L4221472L
tp611
sL23819L
(F4.0
L4221472L
tp612
sL7436L
(F682.6666666666666
L4221472L
tp613
sL15631L
(F262144.0
L4221472L
tp614
sL25871L
(F10.666666666666666
L4221472L
tp615
sL13584L
(F1.4545454545454546
L4221472L
tp616
sL9489L
(F4.0
L4221472L
tp617
sL17685L
(F2.6666666666666665
L4221472L
tp618
sL15642L
(F262144.0
L4221472L
tp619
sL9499L
(F8.0
L4221472L
tp620
sL11552L
(F1.0
L4221472L
tp621
sL13601L
(F9.846153846153847
L4221472L
tp622
sL25892L
(F8.0
L4221472L
tp623
sL15653L
(F1048576.0
L4221472L
tp624
sL23853L
(F8.0
L4221472L
tp625
sL15663L
(F524288.0
L4221472L
tp626
sL9520L
(F4.0
L4221472L
tp627
sL17712L
(F8.0
L4221472L
tp628
sL7473L
(F14.075601374570446
L4221472L
tp629
sL11573L
(F2.0
L4221472L
tp630
sL15672L
(F74898.28571428571
L4221472L
tp631
sL25912L
(F16.0
L4221472L
tp632
sL7482L
(F28.151202749140893
L4221472L
tp633
sL25917L
(F4.0
L4221472L
tp634
sL9536L
(F4.0
L4221472L
tp635
sL23873L
(F4.0
L4221472L
tp636
sL19778L
(F22.0
L4221472L
tp637
sL7491L
(F56.302405498281786
L4221472L
tp638
sL11588L
(F1.0
L4221472L
tp639
sL25934L
(F8.0
L4221472L
tp640
sL13648L
(F1.0
L4221472L
tp641
sL15696L
(F32768.0
L4221472L
tp642
sL13653L
(F2.0
L4221472L
tp643
sL7512L
(F341.3333333333333
L4221472L
tp644
sL25951L
(F4.571428571428571
L4221472L
tp645
sL15712L
(F32768.0
L4221472L
tp646
sL9568L
(F1.0
L4221472L
tp647
sL17765L
(F2.0
L4221472L
tp648
sL23911L
(F8.0
L4221472L
tp649
sL7528L
(F682.6666666666666
L4221472L
tp650
sL13680L
(F4.0
L4221472L
tp651
sL15728L
(F32768.0
L4221472L
tp652
sL13689L
(F1.6
L4221472L
tp653
sL23931L
(F4.0
L4221472L
tp654
sL11648L
(F2.0
L4221472L
tp655
sL15744L
(F32768.0
L4221472L
tp656
sL15751L
(F65536.0
L4221472L
tp657
sL19848L
(F44.0
L4221472L
tp658
sL13709L
(F4.0
L4221472L
tp659
sL15759L
(F43690.666666666664
L4221472L
tp660
sL9622L
(F2.0
L4221472L
tp661
sL13720L
(F8.0
L4221472L
tp662
sL26010L
(F9.142857142857142
L4221472L
tp663
sL7579L
(F28.151202749140893
L4221472L
tp664
sL13727L
(F2.0
L4221472L
tp665
sL11680L
(F1.0
L4221472L
tp666
sL15776L
(F32768.0
L4221472L
tp667
sL23972L
(F8.0
L4221472L
tp668
sL7590L
(F56.302405498281786
L4221472L
tp669
sL15787L
(F65536.0
L4221472L
tp670
sL13744L
(F1.0
L4221472L
tp671
sL26034L
(F18.285714285714285
L4221472L
tp672
sL15798L
(F131072.0
L4221472L
tp673
sL23992L
(F4.0
L4221472L
tp674
sL15805L
(F262144.0
L4221472L
tp675
sL9662L
(F1.0
L4221472L
tp676
sL7616L
(F75.06987399770905
L4221472L
tp677
sL26048L
(F13.149277688603531
L4221472L
tp678
sL15814L
(F131072.0
L4221472L
tp679
sL19912L
(F3.384615384615385
L4221472L
tp680
sL15825L
(F262144.0
L4221472L
tp681
sL26065L
(F26.261671007814066
L4221472L
tp682
sL9682L
(F2.0
L4221472L
tp683
sL7640L
(F56.302405498281786
L4221472L
tp684
sL9689L
(F2.0
L4221472L
tp685
sL13785L
(F2.0
L4221472L
tp686
sL26073L
(F73.14285714285714
L4221472L
tp687
sL15835L
(F131072.0
L4221472L
tp688
sL9694L
(F1.0
L4221472L
tp689
sL13790L
(F1.0
L4221472L
tp690
sL26078L
(F146.28571428571428
L4221472L
tp691
sL7647L
(F48.33038348082596
L4221472L
tp692
sL24031L
(F8.0
L4221472L
tp693
sL9696L
(F1.0
L4221472L
tp694
sL19936L
(F22.0
L4221472L
tp695
sL21984L
(F1.0
L4221472L
tp696
sL9701L
(F2.0
L4221472L
tp697
sL15846L
(F262144.0
L4221472L
tp698
sL11751L
(F2.0
L4221472L
tp699
sL26087L
(F292.57142857142856
L4221472L
tp700
sL19944L
(F44.0
L4221472L
tp701
sL9711L
(F1.0
L4221472L
tp702
sL11760L
(F2.6666666666666665
L4221472L
tp703
sL13808L
(F2.6666666666666665
L4221472L
tp704
sL15856L
(F131072.0
L4221472L
tp705
sL9715L
(F4.0
L4221472L
tp706
sL24051L
(F4.0
L4221472L
tp707
sL7676L
(F42.666666666666664
L4221472L
tp708
sL13824L
(F4.0
L4221472L
tp709
sL15872L
(F1927.5294117647059
L4221472L
tp710
sL9729L
(F4.0
L4221472L
tp711
sL22023L
(F2.0
L4221472L
tp712
sL15884L
(F3855.0588235294117
L4221472L
tp713
sL7694L
(F10.666666666666666
L4221472L
tp714
sL26131L
(F585.1428571428571
L4221472L
tp715
sL22040L
(F1.0
L4221472L
tp716
sL26136L
(F390.0952380952381
L4221472L
tp717
sL13849L
(F8.0
L4221472L
tp718
sL24093L
(F8.0
L4221472L
tp719
sL7712L
(F28.151202749140893
L4221472L
tp720
sL9760L
(F4.0
L4221472L
tp721
sL20000L
(F44.0
L4221472L
tp722
sL11814L
(F1.3333333333333333
L4221472L
tp723
sL13862L
(F16.0
L4221472L
tp724
sL9768L
(F2.0
L4221472L
tp725
sL11819L
(F4.0
L4221472L
tp726
sL9773L
(F4.0
L4221472L
tp727
sL26159L
(F1170.2857142857142
L4221472L
tp728
sL17968L
(F1.0
L4221472L
tp729
sL22064L
(F1.0
L4221472L
tp730
sL24113L
(F4.0
L4221472L
tp731
sL13879L
(F2.6666666666666665
L4221472L
tp732
sL7738L
(F56.302405498281786
L4221472L
tp733
sL13884L
(F1.0
L4221472L
tp734
sL11837L
(F8.0
L4221472L
tp735
sL15935L
(F3383.3985303570753
L4221472L
tp736
sL9792L
(F4.0
L4221472L
tp737
sL13888L
(F1.0
L4221472L
tp738
sL13894L
(F2.0
L4221472L
tp739
sL15944L
(F5436.502303727481
L4221472L
tp740
sL17995L
(F2.0
L4221472L
tp741
sL18000L
(F4.0
L4221472L
tp742
sL9808L
(F8.0
L4221472L
tp743
sL22103L
(F2.0
L4221472L
tp744
sL13912L
(F4.0
L4221472L
tp745
sL26201L
(F780.1904761904761
L4221472L
tp746
sL24155L
(F8.0
L4221472L
tp747
sL18013L
(F1.3333333333333333
L4221472L
tp748
sL15968L
(F15420.235294117647
L4221472L
tp749
sL20064L
(F44.0
L4221472L
tp750
sL5728L
(F1.3333333333333333
L4221472L
tp751
sL13928L
(F8.0
L4221472L
tp752
sL15977L
(F30840.470588235294
L4221472L
tp753
sL22122L
(F1.0
L4221472L
tp754
sL15982L
(F61680.94117647059
L4221472L
tp755
sL24175L
(F4.0
L4221472L
tp756
sL9840L
(F1.0
L4221472L
tp757
sL11888L
(F1.3333333333333333
L4221472L
tp758
sL26225L
(F2340.5714285714284
L4221472L
tp759
sL15986L
(F30840.470588235294
L4221472L
tp760
sL7795L
(F8.0
L4221472L
tp761
sL13946L
(F16.0
L4221472L
tp762
sL15995L
(F61680.94117647059
L4221472L
tp763
sL22144L
(F1.0
L4221472L
tp764
sL11905L
(F3.5555555555555554
L4221472L
tp765
sL7810L
(F16.0
L4221472L
tp766
sL16008L
(F30840.470588235294
L4221472L
tp767
sL9871L
(F2.0
L4221472L
tp768
sL16017L
(F61680.94117647059
L4221472L
tp769
sL13976L
(F32.0
L4221472L
tp770
sL7833L
(F8.0
L4221472L
tp771
sL24217L
(F8.0
L4221472L
tp772
sL11931L
(F3.5555555555555554
L4221472L
tp773
sL9885L
(F4.0
L4221472L
tp774
sL9888L
(F3.9384615384615387
L4221472L
tp775
sL16033L
(F30840.470588235294
L4221472L
tp776
sL13987L
(F2.0
L4221472L
tp777
sL22183L
(F2.0
L4221472L
tp778
sL20136L
(F44.0
L4221472L
tp779
sL26282L
(F4681.142857142857
L4221472L
tp780
sL16045L
(F10280.156862745098
L4221472L
tp781
sL24237L
(F4.0
L4221472L
tp782
sL9904L
(F8.0
L4221472L
tp783
sL7859L
(F56.302405498281786
L4221472L
tp784
sL14003L
(F2.0
L4221472L
tp785
sL9913L
(F3.1604938271604937
L4221472L
tp786
sL16058L
(F20560.313725490196
L4221472L
tp787
sL16063L
(F41120.62745098039
L4221472L
tp788
sL11968L
(F1.0
L4221472L
tp789
sL16067L
(F20560.313725490196
L4221472L
tp790
sL26307L
(F2340.5714285714284
L4221472L
tp791
sL9926L
(F8.0
L4221472L
tp792
sL7880L
(F682.6666666666666
L4221472L
tp793
sL9931L
(F16.0
L4221472L
tp794
sL16076L
(F4299.610875745805
L4221472L
tp795
sL20172L
(F22.0
L4221472L
tp796
sL26316L
(F9362.285714285714
L4221472L
tp797
sL9936L
(F32.0
L4221472L
tp798
sL16081L
(F15420.235294117647
L4221472L
tp799
sL14035L
(F1.0
L4221472L
tp800
sL16086L
(F30840.470588235294
L4221472L
tp801
sL7895L
(F56.302405498281786
L4221472L
tp802
sL9945L
(F64.0
L4221472L
tp803
sL16091L
(F61680.94117647059
L4221472L
tp804
sL7900L
(F45.04192439862543
L4221472L
tp805
sL16095L
(F30840.470588235294
L4221472L
tp806
sL14048L
(F1.0
L4221472L
tp807
sL9954L
(F12.8
L4221472L
tp808
sL9958L
(F32.0
L4221472L
tp809
sL22248L
(F4.0
L4221472L
tp810
sL24301L
(F8.0
L4221472L
tp811
sL9967L
(F64.0
L4221472L
tp812
sL22255L
(F1.3333333333333333
L4221472L
tp813
sL7920L
(F3120.7619047619046
L4221472L
tp814
sL16112L
(F16.0
L4221472L
tp815
sL18160L
(F1.0
L4221472L
tp816
sL9972L
(F128.0
L4221472L
tp817
sL12022L
(F1.0
L4221472L
tp818
sL7928L
(F3120.7619047619046
L4221472L
tp819
sL16120L
(F32.0
L4221472L
tp820
sL9977L
(F1.0893617021276596
L4221472L
tp821
sL22265L
(F4.0
L4221472L
tp822
sL22270L
(F5.12
L4221472L
tp823
sL16128L
(F64.0
L4221472L
tp824
sL20224L
(F44.0
L4221472L
tp825
sL24322L
(F4.0
L4221472L
tp826
sL22275L
(F4.4885779313832925
L4221472L
tp827
sL7941L
(F12483.047619047618
L4221472L
tp828
sL12037L
(F2.0
L4221472L
tp829
sL14087L
(F2.0
L4221472L
tp830
sL16136L
(F32.0
L4221472L
tp831
sL22295L
(F16.0
L4221472L
tp832
sL26392L
(F18724.571428571428
L4221472L
tp833
sL10009L
(F1.3333333333333333
L4221472L
tp834
sL26400L
(F585.1428571428571
L4221472L
tp835
sL26405L
(F234.05714285714285
L4221472L
tp836
sL24361L
(F8.0
L4221472L
tp837
sL7984L
(F6241.523809523809
L4221472L
tp838
sL10032L
(F1.0
L4221472L
tp839
sL12080L
(F1.0
L4221472L
tp840
sL16176L
(F16.0
L4221472L
tp841
sL20272L
(F44.0
L4221472L
tp842
sL22320L
(F8.0
L4221472L
tp843
sL5936L
(F2.0
L4221472L
tp844
sL26418L
(F334.3673469387755
L4221472L
tp845
sL7990L
(F12483.047619047618
L4221472L
tp846
sL16184L
(F32.0
L4221472L
tp847
sL7995L
(F24966.095238095237
L4221472L
tp848
sL26427L
(F33.377132671250315
L4221472L
tp849
sL24382L
(F4.0
L4221472L
tp850
sL8000L
(F49932.19047619047
L4221472L
tp851
sL12096L
(F2.0
L4221472L
tp852
sL16192L
(F64.0
L4221472L
tp853
sL10053L
(F2.0
L4221472L
tp854
sL8007L
(F19972.876190476192
L4221472L
tp855
sL16200L
(F32.0
L4221472L
tp856
sL22346L
(F16.0
L4221472L
tp857
sL10059L
(F4.0
L4221472L
tp858
sL26444L
(F66.75426534250063
L4221472L
tp859
sL10064L
(F1.3333333333333333
L4221472L
tp860
sL12112L
(F4.0
L4221472L
tp861
sL26449L
(F5.1511888386716445
L4221472L
tp862
sL22354L
(F32.0
L4221472L
tp863
sL22356L
(F21.333333333333332
L4221472L
tp864
sL22361L
(F64.0
L4221472L
tp865
sL26457L
(F2.4220115675296117
L4221472L
tp866
sL14170L
(F4.0
L4221472L
tp867
sL24411L
(F2.6666666666666665
L4221472L
tp868
sL8028L
(F39945.752380952385
L4221472L
tp869
sL12127L
(F1.6
L4221472L
tp870
sL14175L
(F2.0
L4221472L
tp871
sL5984L
(F1.0
L4221472L
tp872
sL14180L
(F4.0
L4221472L
tp873
sL26469L
(F4.571428571428571
L4221472L
tp874
sL22374L
(F31.995193029893343
L4221472L
tp875
sL24423L
(F5.333333333333333
L4221472L
tp876
sL14185L
(F1.0
L4221472L
tp877
sL20329L
(F22.0
L4221472L
tp878
sL8045L
(F85.33333333333333
L4221472L
tp879
sL26477L
(F18.285714285714285
L4221472L
tp880
sL14192L
(F1.0
L4221472L
tp881
sL16240L
(F16.0
L4221472L
tp882
sL22384L
(F32.0
L4221472L
tp883
sL12145L
(F1.0666666666666667
L4221472L
tp884
sL26485L
(F5.585256205390434
L4221472L
tp885
sL8055L
(F170.66666666666666
L4221472L
tp886
sL22394L
(F64.0
L4221472L
tp887
sL8060L
(F21.333333333333332
L4221472L
tp888
sL22396L
(F128.0
L4221472L
tp889
sL26493L
(F4681.142857142857
L4221472L
tp890
sL24447L
(F5.333333333333333
L4221472L
tp891
sL10112L
(F1.0
L4221472L
tp892
sL8070L
(F42.666666666666664
L4221472L
tp893
sL8075L
(F1560.3809523809523
L4221472L
tp894
sL14219L
(F2.0
L4221472L
tp895
sL14224L
(F1.0178926441351888
L4221472L
tp896
sL24464L
(F3.2
L4221472L
tp897
sL24467L
(F1.2307692307692308
L4221472L
tp898
sL16280L
(F16.0
L4221472L
tp899
sL8091L
(F3120.7619047619046
L4221472L
tp900
sL22431L
(F85.33333333333333
L4221472L
tp901
sL8096L
(F225.20962199312714
L4221472L
tp902
sL12192L
(F1.0
L4221472L
tp903
sL20384L
(F44.0
L4221472L
tp904
sL24480L
(F10.666666666666666
L4221472L
tp905
sL26530L
(F9362.285714285714
L4221472L
tp906
sL10154L
(F2.0
L4221472L
tp907
sL8112L
(F450.4192439862543
L4221472L
tp908
sL14256L
(F2.0
L4221472L
tp909
sL24496L
(F1.0
L4221472L
tp910
sL18356L
(F2.0
L4221472L
tp911
sL12214L
(F2.0
L4221472L
tp912
sL26554L
(F16.0
L4221472L
tp913
sL14268L
(F4.0
L4221472L
tp914
sL24508L
(F2.0
L4221472L
tp915
sL18365L
(F1.0
L4221472L
tp916
sL12223L
(F4.0
L4221472L
tp917
sL26563L
(F4.923076923076923
L4221472L
tp918
sL22471L
(F512.0
L4221472L
tp919
sL14280L
(F8.0
L4221472L
tp920
sL16328L
(F16.0
L4221472L
tp921
sL26568L
(F1.0
L4221472L
tp922
sL12233L
(F1.6
L4221472L
tp923
sL24521L
(F1.3333333333333333
L4221472L
tp924
sL14286L
(F16.0
L4221472L
tp925
sL10191L
(F1.8285714285714285
L4221472L
tp926
sL26576L
(F1.0
L4221472L
tp927
sL14292L
(F32.0
L4221472L
tp928
sL22484L
(F1024.0
L4221472L
tp929
sL8150L
(F900.8384879725086
L4221472L
tp930
sL10198L
(F2.0
L4221472L
tp931
sL12249L
(F3.2
L4221472L
tp932
sL14298L
(F64.0
L4221472L
tp933
sL22492L
(F2048.0
L4221472L
tp934
sL6112L
(F1.0
L4221472L
tp935
sL12256L
(F2.6666666666666665
L4221472L
tp936
sL22500L
(F4096.0
L4221472L
tp937
sL8167L
(F112.60481099656357
L4221472L
tp938
sL20456L
(F2.0
L4221472L
tp939
sL24555L
(F2.6666666666666665
L4221472L
tp940
sL22509L
(F8192.0
L4221472L
tp941
sL18416L
(F1.0
L4221472L
tp942
sL22513L
(F8192.0
L4221472L
tp943
sL14328L
(F4.0
L4221472L
tp944
sL16376L
(F16.0
L4221472L
tp945
sL22520L
(F16.0
L4221472L
tp946
sL26616L
(F2.0
L4221472L
tp947
sL16378L
(F32.0
L4221472L
tp948
sL8188L
(F225.20962199312714
L4221472L
tp949
sL24575L
(F1.3333333333333333
L4221472L
tp950
s.